; Listing generated by Microsoft (R) Optimizing Compiler Version 18.00.21005.1 

include listing.inc

INCLUDELIB LIBCMT
INCLUDELIB OLDNAMES

PUBLIC	?xpos@@3_KA					; xpos
PUBLIC	?ypos@@3_KA					; ypos
PUBLIC	?background@@3IA				; background
PUBLIC	?foreground@@3IA				; foreground
_BSS	SEGMENT
?xpos@@3_KA DQ	01H DUP (?)				; xpos
?ypos@@3_KA DQ	01H DUP (?)				; ypos
?background@@3IA DD 01H DUP (?)				; background
_BSS	ENDS
_DATA	SEGMENT
?foreground@@3IA DD 0ffffffffH				; foreground
_DATA	ENDS
CONST	SEGMENT
bx_vgafont DB	00H
	DB	00H
	DB	00H
	DB	00H
	DB	00H
	DB	00H
	DB	00H
	DB	00H
	DB	00H
	DB	00H
	DB	00H
	DB	00H
	DB	00H
	DB	00H
	DB	00H
	DB	00H
	DB	00H
	DB	00H
	DB	07eH
	DB	081H
	DB	0a5H
	DB	081H
	DB	081H
	DB	0a5H
	DB	099H
	DB	081H
	DB	081H
	DB	07eH
	DB	00H
	DB	00H
	DB	00H
	DB	00H
	DB	00H
	DB	00H
	DB	07eH
	DB	0ffH
	DB	0dbH
	DB	0ffH
	DB	0ffH
	DB	0dbH
	DB	0e7H
	DB	0ffH
	DB	0ffH
	DB	07eH
	DB	00H
	DB	00H
	DB	00H
	DB	00H
	DB	00H
	DB	00H
	DB	00H
	DB	00H
	DB	036H
	DB	07fH
	DB	07fH
	DB	07fH
	DB	07fH
	DB	03eH
	DB	01cH
	DB	08H
	DB	00H
	DB	00H
	DB	00H
	DB	00H
	DB	00H
	DB	00H
	DB	00H
	DB	00H
	DB	08H
	DB	01cH
	DB	03eH
	DB	07fH
	DB	03eH
	DB	01cH
	DB	08H
	DB	00H
	DB	00H
	DB	00H
	DB	00H
	DB	00H
	DB	00H
	DB	00H
	DB	00H
	DB	018H
	DB	03cH
	DB	03cH
	DB	0e7H
	DB	0e7H
	DB	0e7H
	DB	018H
	DB	018H
	DB	03cH
	DB	00H
	DB	00H
	DB	00H
	DB	00H
	DB	00H
	DB	00H
	DB	00H
	DB	018H
	DB	03cH
	DB	07eH
	DB	0ffH
	DB	0ffH
	DB	07eH
	DB	018H
	DB	018H
	DB	03cH
	DB	00H
	DB	00H
	DB	00H
	DB	00H
	DB	00H
	DB	00H
	DB	00H
	DB	00H
	DB	00H
	DB	00H
	DB	018H
	DB	03cH
	DB	03cH
	DB	018H
	DB	00H
	DB	00H
	DB	00H
	DB	00H
	DB	00H
	DB	00H
	DB	0ffH
	DB	0ffH
	DB	0ffH
	DB	0ffH
	DB	0ffH
	DB	0ffH
	DB	0e7H
	DB	0c3H
	DB	0c3H
	DB	0e7H
	DB	0ffH
	DB	0ffH
	DB	0ffH
	DB	0ffH
	DB	0ffH
	DB	0ffH
	DB	00H
	DB	00H
	DB	00H
	DB	00H
	DB	00H
	DB	03cH
	DB	066H
	DB	042H
	DB	042H
	DB	066H
	DB	03cH
	DB	00H
	DB	00H
	DB	00H
	DB	00H
	DB	00H
	DB	0ffH
	DB	0ffH
	DB	0ffH
	DB	0ffH
	DB	0ffH
	DB	0c3H
	DB	099H
	DB	0bdH
	DB	0bdH
	DB	099H
	DB	0c3H
	DB	0ffH
	DB	0ffH
	DB	0ffH
	DB	0ffH
	DB	0ffH
	DB	00H
	DB	00H
	DB	078H
	DB	060H
	DB	070H
	DB	058H
	DB	01eH
	DB	033H
	DB	033H
	DB	033H
	DB	033H
	DB	01eH
	DB	00H
	DB	00H
	DB	00H
	DB	00H
	DB	00H
	DB	00H
	DB	03cH
	DB	066H
	DB	066H
	DB	066H
	DB	066H
	DB	03cH
	DB	018H
	DB	07eH
	DB	018H
	DB	018H
	DB	00H
	DB	00H
	DB	00H
	DB	00H
	DB	00H
	DB	00H
	DB	0fcH
	DB	0ccH
	DB	0fcH
	DB	0cH
	DB	0cH
	DB	0cH
	DB	0cH
	DB	0eH
	DB	0fH
	DB	07H
	DB	00H
	DB	00H
	DB	00H
	DB	00H
	DB	00H
	DB	00H
	DB	0feH
	DB	0c6H
	DB	0feH
	DB	0c6H
	DB	0c6H
	DB	0c6H
	DB	0c6H
	DB	0e6H
	DB	0e7H
	DB	067H
	DB	03H
	DB	00H
	DB	00H
	DB	00H
	DB	00H
	DB	00H
	DB	00H
	DB	018H
	DB	018H
	DB	0dbH
	DB	03cH
	DB	0e7H
	DB	03cH
	DB	0dbH
	DB	018H
	DB	018H
	DB	00H
	DB	00H
	DB	00H
	DB	00H
	DB	00H
	DB	01H
	DB	03H
	DB	07H
	DB	0fH
	DB	01fH
	DB	07fH
	DB	01fH
	DB	0fH
	DB	07H
	DB	03H
	DB	01H
	DB	00H
	DB	00H
	DB	00H
	DB	00H
	DB	00H
	DB	040H
	DB	060H
	DB	070H
	DB	078H
	DB	07cH
	DB	07fH
	DB	07cH
	DB	078H
	DB	070H
	DB	060H
	DB	040H
	DB	00H
	DB	00H
	DB	00H
	DB	00H
	DB	00H
	DB	00H
	DB	018H
	DB	03cH
	DB	07eH
	DB	018H
	DB	018H
	DB	018H
	DB	07eH
	DB	03cH
	DB	018H
	DB	00H
	DB	00H
	DB	00H
	DB	00H
	DB	00H
	DB	00H
	DB	00H
	DB	066H
	DB	066H
	DB	066H
	DB	066H
	DB	066H
	DB	066H
	DB	066H
	DB	00H
	DB	066H
	DB	066H
	DB	00H
	DB	00H
	DB	00H
	DB	00H
	DB	00H
	DB	00H
	DB	0feH
	DB	0dbH
	DB	0dbH
	DB	0dbH
	DB	0deH
	DB	0d8H
	DB	0d8H
	DB	0d8H
	DB	0d8H
	DB	0d8H
	DB	00H
	DB	00H
	DB	00H
	DB	00H
	DB	00H
	DB	03eH
	DB	063H
	DB	06H
	DB	01cH
	DB	036H
	DB	063H
	DB	063H
	DB	036H
	DB	01cH
	DB	030H
	DB	063H
	DB	03eH
	DB	00H
	DB	00H
	DB	00H
	DB	00H
	DB	00H
	DB	00H
	DB	00H
	DB	00H
	DB	00H
	DB	00H
	DB	00H
	DB	07fH
	DB	07fH
	DB	07fH
	DB	07fH
	DB	00H
	DB	00H
	DB	00H
	DB	00H
	DB	00H
	DB	00H
	DB	018H
	DB	03cH
	DB	07eH
	DB	018H
	DB	018H
	DB	018H
	DB	07eH
	DB	03cH
	DB	018H
	DB	07eH
	DB	00H
	DB	00H
	DB	00H
	DB	00H
	DB	00H
	DB	00H
	DB	018H
	DB	03cH
	DB	07eH
	DB	018H
	DB	018H
	DB	018H
	DB	018H
	DB	018H
	DB	018H
	DB	018H
	DB	00H
	DB	00H
	DB	00H
	DB	00H
	DB	00H
	DB	00H
	DB	018H
	DB	018H
	DB	018H
	DB	018H
	DB	018H
	DB	018H
	DB	018H
	DB	07eH
	DB	03cH
	DB	018H
	DB	00H
	DB	00H
	DB	00H
	DB	00H
	DB	00H
	DB	00H
	DB	00H
	DB	00H
	DB	00H
	DB	018H
	DB	030H
	DB	07fH
	DB	030H
	DB	018H
	DB	00H
	DB	00H
	DB	00H
	DB	00H
	DB	00H
	DB	00H
	DB	00H
	DB	00H
	DB	00H
	DB	00H
	DB	00H
	DB	0cH
	DB	06H
	DB	07fH
	DB	06H
	DB	0cH
	DB	00H
	DB	00H
	DB	00H
	DB	00H
	DB	00H
	DB	00H
	DB	00H
	DB	00H
	DB	00H
	DB	00H
	DB	00H
	DB	00H
	DB	03H
	DB	03H
	DB	03H
	DB	07fH
	DB	00H
	DB	00H
	DB	00H
	DB	00H
	DB	00H
	DB	00H
	DB	00H
	DB	00H
	DB	00H
	DB	00H
	DB	00H
	DB	014H
	DB	036H
	DB	07fH
	DB	036H
	DB	014H
	DB	00H
	DB	00H
	DB	00H
	DB	00H
	DB	00H
	DB	00H
	DB	00H
	DB	00H
	DB	00H
	DB	00H
	DB	08H
	DB	01cH
	DB	01cH
	DB	03eH
	DB	03eH
	DB	07fH
	DB	07fH
	DB	00H
	DB	00H
	DB	00H
	DB	00H
	DB	00H
	DB	00H
	DB	00H
	DB	00H
	DB	00H
	DB	07fH
	DB	07fH
	DB	03eH
	DB	03eH
	DB	01cH
	DB	01cH
	DB	08H
	DB	00H
	DB	00H
	DB	00H
	DB	00H
	DB	00H
	DB	00H
	DB	00H
	DB	00H
	DB	00H
	DB	00H
	DB	00H
	DB	00H
	DB	00H
	DB	00H
	DB	00H
	DB	00H
	DB	00H
	DB	00H
	DB	00H
	DB	00H
	DB	00H
	DB	00H
	DB	00H
	DB	018H
	DB	03cH
	DB	03cH
	DB	03cH
	DB	018H
	DB	018H
	DB	018H
	DB	00H
	DB	018H
	DB	018H
	DB	00H
	DB	00H
	DB	00H
	DB	00H
	DB	00H
	DB	066H
	DB	066H
	DB	066H
	DB	024H
	DB	00H
	DB	00H
	DB	00H
	DB	00H
	DB	00H
	DB	00H
	DB	00H
	DB	00H
	DB	00H
	DB	00H
	DB	00H
	DB	00H
	DB	00H
	DB	00H
	DB	036H
	DB	036H
	DB	07fH
	DB	036H
	DB	036H
	DB	036H
	DB	07fH
	DB	036H
	DB	036H
	DB	00H
	DB	00H
	DB	00H
	DB	00H
	DB	018H
	DB	018H
	DB	03eH
	DB	063H
	DB	043H
	DB	03H
	DB	03eH
	DB	060H
	DB	060H
	DB	061H
	DB	063H
	DB	03eH
	DB	018H
	DB	018H
	DB	00H
	DB	00H
	DB	00H
	DB	00H
	DB	00H
	DB	00H
	DB	043H
	DB	063H
	DB	030H
	DB	018H
	DB	0cH
	DB	06H
	DB	063H
	DB	061H
	DB	00H
	DB	00H
	DB	00H
	DB	00H
	DB	00H
	DB	00H
	DB	01cH
	DB	036H
	DB	036H
	DB	01cH
	DB	06eH
	DB	03bH
	DB	033H
	DB	033H
	DB	033H
	DB	06eH
	DB	00H
	DB	00H
	DB	00H
	DB	00H
	DB	00H
	DB	0cH
	DB	0cH
	DB	0cH
	DB	06H
	DB	00H
	DB	00H
	DB	00H
	DB	00H
	DB	00H
	DB	00H
	DB	00H
	DB	00H
	DB	00H
	DB	00H
	DB	00H
	DB	00H
	DB	00H
	DB	030H
	DB	018H
	DB	0cH
	DB	0cH
	DB	0cH
	DB	0cH
	DB	0cH
	DB	0cH
	DB	018H
	DB	030H
	DB	00H
	DB	00H
	DB	00H
	DB	00H
	DB	00H
	DB	00H
	DB	0cH
	DB	018H
	DB	030H
	DB	030H
	DB	030H
	DB	030H
	DB	030H
	DB	030H
	DB	018H
	DB	0cH
	DB	00H
	DB	00H
	DB	00H
	DB	00H
	DB	00H
	DB	00H
	DB	00H
	DB	00H
	DB	00H
	DB	066H
	DB	03cH
	DB	0ffH
	DB	03cH
	DB	066H
	DB	00H
	DB	00H
	DB	00H
	DB	00H
	DB	00H
	DB	00H
	DB	00H
	DB	00H
	DB	00H
	DB	00H
	DB	00H
	DB	018H
	DB	018H
	DB	07eH
	DB	018H
	DB	018H
	DB	00H
	DB	00H
	DB	00H
	DB	00H
	DB	00H
	DB	00H
	DB	00H
	DB	00H
	DB	00H
	DB	00H
	DB	00H
	DB	00H
	DB	00H
	DB	00H
	DB	00H
	DB	018H
	DB	018H
	DB	018H
	DB	0cH
	DB	00H
	DB	00H
	DB	00H
	DB	00H
	DB	00H
	DB	00H
	DB	00H
	DB	00H
	DB	00H
	DB	00H
	DB	07fH
	DB	00H
	DB	00H
	DB	00H
	DB	00H
	DB	00H
	DB	00H
	DB	00H
	DB	00H
	DB	00H
	DB	00H
	DB	00H
	DB	00H
	DB	00H
	DB	00H
	DB	00H
	DB	00H
	DB	00H
	DB	00H
	DB	018H
	DB	018H
	DB	00H
	DB	00H
	DB	00H
	DB	00H
	DB	00H
	DB	00H
	DB	00H
	DB	00H
	DB	040H
	DB	060H
	DB	030H
	DB	018H
	DB	0cH
	DB	06H
	DB	03H
	DB	01H
	DB	00H
	DB	00H
	DB	00H
	DB	00H
	DB	00H
	DB	00H
	DB	01cH
	DB	036H
	DB	063H
	DB	063H
	DB	06bH
	DB	06bH
	DB	063H
	DB	063H
	DB	036H
	DB	01cH
	DB	00H
	DB	00H
	DB	00H
	DB	00H
	DB	00H
	DB	00H
	DB	018H
	DB	01cH
	DB	01eH
	DB	018H
	DB	018H
	DB	018H
	DB	018H
	DB	018H
	DB	018H
	DB	07eH
	DB	00H
	DB	00H
	DB	00H
	DB	00H
	DB	00H
	DB	00H
	DB	03eH
	DB	063H
	DB	060H
	DB	030H
	DB	018H
	DB	0cH
	DB	06H
	DB	03H
	DB	063H
	DB	07fH
	DB	00H
	DB	00H
	DB	00H
	DB	00H
	DB	00H
	DB	00H
	DB	03eH
	DB	063H
	DB	060H
	DB	060H
	DB	03cH
	DB	060H
	DB	060H
	DB	060H
	DB	063H
	DB	03eH
	DB	00H
	DB	00H
	DB	00H
	DB	00H
	DB	00H
	DB	00H
	DB	030H
	DB	038H
	DB	03cH
	DB	036H
	DB	033H
	DB	07fH
	DB	030H
	DB	030H
	DB	030H
	DB	078H
	DB	00H
	DB	00H
	DB	00H
	DB	00H
	DB	00H
	DB	00H
	DB	07fH
	DB	03H
	DB	03H
	DB	03H
	DB	03fH
	DB	060H
	DB	060H
	DB	060H
	DB	063H
	DB	03eH
	DB	00H
	DB	00H
	DB	00H
	DB	00H
	DB	00H
	DB	00H
	DB	01cH
	DB	06H
	DB	03H
	DB	03H
	DB	03fH
	DB	063H
	DB	063H
	DB	063H
	DB	063H
	DB	03eH
	DB	00H
	DB	00H
	DB	00H
	DB	00H
	DB	00H
	DB	00H
	DB	07fH
	DB	063H
	DB	060H
	DB	060H
	DB	030H
	DB	018H
	DB	0cH
	DB	0cH
	DB	0cH
	DB	0cH
	DB	00H
	DB	00H
	DB	00H
	DB	00H
	DB	00H
	DB	00H
	DB	03eH
	DB	063H
	DB	063H
	DB	063H
	DB	03eH
	DB	063H
	DB	063H
	DB	063H
	DB	063H
	DB	03eH
	DB	00H
	DB	00H
	DB	00H
	DB	00H
	DB	00H
	DB	00H
	DB	03eH
	DB	063H
	DB	063H
	DB	063H
	DB	07eH
	DB	060H
	DB	060H
	DB	060H
	DB	030H
	DB	01eH
	DB	00H
	DB	00H
	DB	00H
	DB	00H
	DB	00H
	DB	00H
	DB	00H
	DB	00H
	DB	018H
	DB	018H
	DB	00H
	DB	00H
	DB	00H
	DB	018H
	DB	018H
	DB	00H
	DB	00H
	DB	00H
	DB	00H
	DB	00H
	DB	00H
	DB	00H
	DB	00H
	DB	00H
	DB	018H
	DB	018H
	DB	00H
	DB	00H
	DB	00H
	DB	018H
	DB	018H
	DB	0cH
	DB	00H
	DB	00H
	DB	00H
	DB	00H
	DB	00H
	DB	00H
	DB	00H
	DB	060H
	DB	030H
	DB	018H
	DB	0cH
	DB	06H
	DB	0cH
	DB	018H
	DB	030H
	DB	060H
	DB	00H
	DB	00H
	DB	00H
	DB	00H
	DB	00H
	DB	00H
	DB	00H
	DB	00H
	DB	00H
	DB	07eH
	DB	00H
	DB	00H
	DB	07eH
	DB	00H
	DB	00H
	DB	00H
	DB	00H
	DB	00H
	DB	00H
	DB	00H
	DB	00H
	DB	00H
	DB	00H
	DB	06H
	DB	0cH
	DB	018H
	DB	030H
	DB	060H
	DB	030H
	DB	018H
	DB	0cH
	DB	06H
	DB	00H
	DB	00H
	DB	00H
	DB	00H
	DB	00H
	DB	00H
	DB	03eH
	DB	063H
	DB	063H
	DB	030H
	DB	018H
	DB	018H
	DB	018H
	DB	00H
	DB	018H
	DB	018H
	DB	00H
	DB	00H
	DB	00H
	DB	00H
	DB	00H
	DB	00H
	DB	00H
	DB	03eH
	DB	063H
	DB	063H
	DB	07bH
	DB	07bH
	DB	07bH
	DB	03bH
	DB	03H
	DB	03eH
	DB	00H
	DB	00H
	DB	00H
	DB	00H
	DB	00H
	DB	00H
	DB	08H
	DB	01cH
	DB	036H
	DB	063H
	DB	063H
	DB	07fH
	DB	063H
	DB	063H
	DB	063H
	DB	063H
	DB	00H
	DB	00H
	DB	00H
	DB	00H
	DB	00H
	DB	00H
	DB	03fH
	DB	066H
	DB	066H
	DB	066H
	DB	03eH
	DB	066H
	DB	066H
	DB	066H
	DB	066H
	DB	03fH
	DB	00H
	DB	00H
	DB	00H
	DB	00H
	DB	00H
	DB	00H
	DB	03cH
	DB	066H
	DB	043H
	DB	03H
	DB	03H
	DB	03H
	DB	03H
	DB	043H
	DB	066H
	DB	03cH
	DB	00H
	DB	00H
	DB	00H
	DB	00H
	DB	00H
	DB	00H
	DB	01fH
	DB	036H
	DB	066H
	DB	066H
	DB	066H
	DB	066H
	DB	066H
	DB	066H
	DB	036H
	DB	01fH
	DB	00H
	DB	00H
	DB	00H
	DB	00H
	DB	00H
	DB	00H
	DB	07fH
	DB	066H
	DB	046H
	DB	016H
	DB	01eH
	DB	016H
	DB	06H
	DB	046H
	DB	066H
	DB	07fH
	DB	00H
	DB	00H
	DB	00H
	DB	00H
	DB	00H
	DB	00H
	DB	07fH
	DB	066H
	DB	046H
	DB	016H
	DB	01eH
	DB	016H
	DB	06H
	DB	06H
	DB	06H
	DB	0fH
	DB	00H
	DB	00H
	DB	00H
	DB	00H
	DB	00H
	DB	00H
	DB	03cH
	DB	066H
	DB	043H
	DB	03H
	DB	03H
	DB	07bH
	DB	063H
	DB	063H
	DB	066H
	DB	05cH
	DB	00H
	DB	00H
	DB	00H
	DB	00H
	DB	00H
	DB	00H
	DB	063H
	DB	063H
	DB	063H
	DB	063H
	DB	07fH
	DB	063H
	DB	063H
	DB	063H
	DB	063H
	DB	063H
	DB	00H
	DB	00H
	DB	00H
	DB	00H
	DB	00H
	DB	00H
	DB	03cH
	DB	018H
	DB	018H
	DB	018H
	DB	018H
	DB	018H
	DB	018H
	DB	018H
	DB	018H
	DB	03cH
	DB	00H
	DB	00H
	DB	00H
	DB	00H
	DB	00H
	DB	00H
	DB	078H
	DB	030H
	DB	030H
	DB	030H
	DB	030H
	DB	030H
	DB	033H
	DB	033H
	DB	033H
	DB	01eH
	DB	00H
	DB	00H
	DB	00H
	DB	00H
	DB	00H
	DB	00H
	DB	067H
	DB	066H
	DB	066H
	DB	036H
	DB	01eH
	DB	01eH
	DB	036H
	DB	066H
	DB	066H
	DB	067H
	DB	00H
	DB	00H
	DB	00H
	DB	00H
	DB	00H
	DB	00H
	DB	0fH
	DB	06H
	DB	06H
	DB	06H
	DB	06H
	DB	06H
	DB	06H
	DB	046H
	DB	066H
	DB	07fH
	DB	00H
	DB	00H
	DB	00H
	DB	00H
	DB	00H
	DB	00H
	DB	063H
	DB	077H
	DB	07fH
	DB	07fH
	DB	06bH
	DB	063H
	DB	063H
	DB	063H
	DB	063H
	DB	063H
	DB	00H
	DB	00H
	DB	00H
	DB	00H
	DB	00H
	DB	00H
	DB	063H
	DB	067H
	DB	06fH
	DB	07fH
	DB	07bH
	DB	073H
	DB	063H
	DB	063H
	DB	063H
	DB	063H
	DB	00H
	DB	00H
	DB	00H
	DB	00H
	DB	00H
	DB	00H
	DB	03eH
	DB	063H
	DB	063H
	DB	063H
	DB	063H
	DB	063H
	DB	063H
	DB	063H
	DB	063H
	DB	03eH
	DB	00H
	DB	00H
	DB	00H
	DB	00H
	DB	00H
	DB	00H
	DB	03fH
	DB	066H
	DB	066H
	DB	066H
	DB	03eH
	DB	06H
	DB	06H
	DB	06H
	DB	06H
	DB	0fH
	DB	00H
	DB	00H
	DB	00H
	DB	00H
	DB	00H
	DB	00H
	DB	03eH
	DB	063H
	DB	063H
	DB	063H
	DB	063H
	DB	063H
	DB	063H
	DB	06bH
	DB	07bH
	DB	03eH
	DB	030H
	DB	070H
	DB	00H
	DB	00H
	DB	00H
	DB	00H
	DB	03fH
	DB	066H
	DB	066H
	DB	066H
	DB	03eH
	DB	036H
	DB	066H
	DB	066H
	DB	066H
	DB	067H
	DB	00H
	DB	00H
	DB	00H
	DB	00H
	DB	00H
	DB	00H
	DB	03eH
	DB	063H
	DB	063H
	DB	06H
	DB	01cH
	DB	030H
	DB	060H
	DB	063H
	DB	063H
	DB	03eH
	DB	00H
	DB	00H
	DB	00H
	DB	00H
	DB	00H
	DB	00H
	DB	07eH
	DB	07eH
	DB	05aH
	DB	018H
	DB	018H
	DB	018H
	DB	018H
	DB	018H
	DB	018H
	DB	03cH
	DB	00H
	DB	00H
	DB	00H
	DB	00H
	DB	00H
	DB	00H
	DB	063H
	DB	063H
	DB	063H
	DB	063H
	DB	063H
	DB	063H
	DB	063H
	DB	063H
	DB	063H
	DB	03eH
	DB	00H
	DB	00H
	DB	00H
	DB	00H
	DB	00H
	DB	00H
	DB	063H
	DB	063H
	DB	063H
	DB	063H
	DB	063H
	DB	063H
	DB	063H
	DB	036H
	DB	01cH
	DB	08H
	DB	00H
	DB	00H
	DB	00H
	DB	00H
	DB	00H
	DB	00H
	DB	063H
	DB	063H
	DB	063H
	DB	063H
	DB	06bH
	DB	06bH
	DB	06bH
	DB	07fH
	DB	077H
	DB	036H
	DB	00H
	DB	00H
	DB	00H
	DB	00H
	DB	00H
	DB	00H
	DB	063H
	DB	063H
	DB	036H
	DB	03eH
	DB	01cH
	DB	01cH
	DB	03eH
	DB	036H
	DB	063H
	DB	063H
	DB	00H
	DB	00H
	DB	00H
	DB	00H
	DB	00H
	DB	00H
	DB	066H
	DB	066H
	DB	066H
	DB	066H
	DB	03cH
	DB	018H
	DB	018H
	DB	018H
	DB	018H
	DB	03cH
	DB	00H
	DB	00H
	DB	00H
	DB	00H
	DB	00H
	DB	00H
	DB	07fH
	DB	063H
	DB	061H
	DB	030H
	DB	018H
	DB	0cH
	DB	06H
	DB	043H
	DB	063H
	DB	07fH
	DB	00H
	DB	00H
	DB	00H
	DB	00H
	DB	00H
	DB	00H
	DB	03cH
	DB	0cH
	DB	0cH
	DB	0cH
	DB	0cH
	DB	0cH
	DB	0cH
	DB	0cH
	DB	0cH
	DB	03cH
	DB	00H
	DB	00H
	DB	00H
	DB	00H
	DB	00H
	DB	00H
	DB	00H
	DB	01H
	DB	03H
	DB	07H
	DB	0eH
	DB	01cH
	DB	038H
	DB	070H
	DB	060H
	DB	040H
	DB	00H
	DB	00H
	DB	00H
	DB	00H
	DB	00H
	DB	00H
	DB	03cH
	DB	030H
	DB	030H
	DB	030H
	DB	030H
	DB	030H
	DB	030H
	DB	030H
	DB	030H
	DB	03cH
	DB	00H
	DB	00H
	DB	00H
	DB	00H
	DB	08H
	DB	01cH
	DB	036H
	DB	063H
	DB	00H
	DB	00H
	DB	00H
	DB	00H
	DB	00H
	DB	00H
	DB	00H
	DB	00H
	DB	00H
	DB	00H
	DB	00H
	DB	00H
	DB	00H
	DB	00H
	DB	00H
	DB	00H
	DB	00H
	DB	00H
	DB	00H
	DB	00H
	DB	00H
	DB	00H
	DB	00H
	DB	00H
	DB	00H
	DB	0ffH
	DB	00H
	DB	00H
	DB	0cH
	DB	0cH
	DB	018H
	DB	00H
	DB	00H
	DB	00H
	DB	00H
	DB	00H
	DB	00H
	DB	00H
	DB	00H
	DB	00H
	DB	00H
	DB	00H
	DB	00H
	DB	00H
	DB	00H
	DB	00H
	DB	00H
	DB	00H
	DB	00H
	DB	01eH
	DB	030H
	DB	03eH
	DB	033H
	DB	033H
	DB	033H
	DB	06eH
	DB	00H
	DB	00H
	DB	00H
	DB	00H
	DB	00H
	DB	00H
	DB	07H
	DB	06H
	DB	06H
	DB	01eH
	DB	036H
	DB	066H
	DB	066H
	DB	066H
	DB	066H
	DB	03eH
	DB	00H
	DB	00H
	DB	00H
	DB	00H
	DB	00H
	DB	00H
	DB	00H
	DB	00H
	DB	00H
	DB	03eH
	DB	063H
	DB	03H
	DB	03H
	DB	03H
	DB	063H
	DB	03eH
	DB	00H
	DB	00H
	DB	00H
	DB	00H
	DB	00H
	DB	00H
	DB	038H
	DB	030H
	DB	030H
	DB	03cH
	DB	036H
	DB	033H
	DB	033H
	DB	033H
	DB	033H
	DB	06eH
	DB	00H
	DB	00H
	DB	00H
	DB	00H
	DB	00H
	DB	00H
	DB	00H
	DB	00H
	DB	00H
	DB	03eH
	DB	063H
	DB	07fH
	DB	03H
	DB	03H
	DB	063H
	DB	03eH
	DB	00H
	DB	00H
	DB	00H
	DB	00H
	DB	00H
	DB	00H
	DB	01cH
	DB	036H
	DB	026H
	DB	06H
	DB	0fH
	DB	06H
	DB	06H
	DB	06H
	DB	06H
	DB	0fH
	DB	00H
	DB	00H
	DB	00H
	DB	00H
	DB	00H
	DB	00H
	DB	00H
	DB	00H
	DB	00H
	DB	06eH
	DB	033H
	DB	033H
	DB	033H
	DB	033H
	DB	033H
	DB	03eH
	DB	030H
	DB	033H
	DB	01eH
	DB	00H
	DB	00H
	DB	00H
	DB	07H
	DB	06H
	DB	06H
	DB	036H
	DB	06eH
	DB	066H
	DB	066H
	DB	066H
	DB	066H
	DB	067H
	DB	00H
	DB	00H
	DB	00H
	DB	00H
	DB	00H
	DB	00H
	DB	018H
	DB	018H
	DB	00H
	DB	01cH
	DB	018H
	DB	018H
	DB	018H
	DB	018H
	DB	018H
	DB	03cH
	DB	00H
	DB	00H
	DB	00H
	DB	00H
	DB	00H
	DB	00H
	DB	060H
	DB	060H
	DB	00H
	DB	070H
	DB	060H
	DB	060H
	DB	060H
	DB	060H
	DB	060H
	DB	060H
	DB	066H
	DB	066H
	DB	03cH
	DB	00H
	DB	00H
	DB	00H
	DB	07H
	DB	06H
	DB	06H
	DB	066H
	DB	036H
	DB	01eH
	DB	01eH
	DB	036H
	DB	066H
	DB	067H
	DB	00H
	DB	00H
	DB	00H
	DB	00H
	DB	00H
	DB	00H
	DB	01cH
	DB	018H
	DB	018H
	DB	018H
	DB	018H
	DB	018H
	DB	018H
	DB	018H
	DB	018H
	DB	03cH
	DB	00H
	DB	00H
	DB	00H
	DB	00H
	DB	00H
	DB	00H
	DB	00H
	DB	00H
	DB	00H
	DB	037H
	DB	07fH
	DB	06bH
	DB	06bH
	DB	06bH
	DB	06bH
	DB	063H
	DB	00H
	DB	00H
	DB	00H
	DB	00H
	DB	00H
	DB	00H
	DB	00H
	DB	00H
	DB	00H
	DB	03bH
	DB	066H
	DB	066H
	DB	066H
	DB	066H
	DB	066H
	DB	066H
	DB	00H
	DB	00H
	DB	00H
	DB	00H
	DB	00H
	DB	00H
	DB	00H
	DB	00H
	DB	00H
	DB	03eH
	DB	063H
	DB	063H
	DB	063H
	DB	063H
	DB	063H
	DB	03eH
	DB	00H
	DB	00H
	DB	00H
	DB	00H
	DB	00H
	DB	00H
	DB	00H
	DB	00H
	DB	00H
	DB	03bH
	DB	066H
	DB	066H
	DB	066H
	DB	066H
	DB	066H
	DB	03eH
	DB	06H
	DB	06H
	DB	0fH
	DB	00H
	DB	00H
	DB	00H
	DB	00H
	DB	00H
	DB	00H
	DB	06eH
	DB	033H
	DB	033H
	DB	033H
	DB	033H
	DB	033H
	DB	03eH
	DB	030H
	DB	030H
	DB	078H
	DB	00H
	DB	00H
	DB	00H
	DB	00H
	DB	00H
	DB	00H
	DB	03bH
	DB	06eH
	DB	066H
	DB	06H
	DB	06H
	DB	06H
	DB	0fH
	DB	00H
	DB	00H
	DB	00H
	DB	00H
	DB	00H
	DB	00H
	DB	00H
	DB	00H
	DB	00H
	DB	03eH
	DB	063H
	DB	06H
	DB	01cH
	DB	030H
	DB	063H
	DB	03eH
	DB	00H
	DB	00H
	DB	00H
	DB	00H
	DB	00H
	DB	00H
	DB	08H
	DB	0cH
	DB	0cH
	DB	03fH
	DB	0cH
	DB	0cH
	DB	0cH
	DB	0cH
	DB	06cH
	DB	038H
	DB	00H
	DB	00H
	DB	00H
	DB	00H
	DB	00H
	DB	00H
	DB	00H
	DB	00H
	DB	00H
	DB	033H
	DB	033H
	DB	033H
	DB	033H
	DB	033H
	DB	033H
	DB	06eH
	DB	00H
	DB	00H
	DB	00H
	DB	00H
	DB	00H
	DB	00H
	DB	00H
	DB	00H
	DB	00H
	DB	066H
	DB	066H
	DB	066H
	DB	066H
	DB	066H
	DB	03cH
	DB	018H
	DB	00H
	DB	00H
	DB	00H
	DB	00H
	DB	00H
	DB	00H
	DB	00H
	DB	00H
	DB	00H
	DB	063H
	DB	063H
	DB	06bH
	DB	06bH
	DB	06bH
	DB	07fH
	DB	036H
	DB	00H
	DB	00H
	DB	00H
	DB	00H
	DB	00H
	DB	00H
	DB	00H
	DB	00H
	DB	00H
	DB	063H
	DB	036H
	DB	01cH
	DB	01cH
	DB	01cH
	DB	036H
	DB	063H
	DB	00H
	DB	00H
	DB	00H
	DB	00H
	DB	00H
	DB	00H
	DB	00H
	DB	00H
	DB	00H
	DB	063H
	DB	063H
	DB	063H
	DB	063H
	DB	063H
	DB	063H
	DB	07eH
	DB	060H
	DB	030H
	DB	01fH
	DB	00H
	DB	00H
	DB	00H
	DB	00H
	DB	00H
	DB	00H
	DB	07fH
	DB	033H
	DB	018H
	DB	0cH
	DB	06H
	DB	063H
	DB	07fH
	DB	00H
	DB	00H
	DB	00H
	DB	00H
	DB	00H
	DB	00H
	DB	070H
	DB	018H
	DB	018H
	DB	018H
	DB	0eH
	DB	018H
	DB	018H
	DB	018H
	DB	018H
	DB	070H
	DB	00H
	DB	00H
	DB	00H
	DB	00H
	DB	00H
	DB	00H
	DB	018H
	DB	018H
	DB	018H
	DB	018H
	DB	00H
	DB	018H
	DB	018H
	DB	018H
	DB	018H
	DB	018H
	DB	00H
	DB	00H
	DB	00H
	DB	00H
	DB	00H
	DB	00H
	DB	0eH
	DB	018H
	DB	018H
	DB	018H
	DB	070H
	DB	018H
	DB	018H
	DB	018H
	DB	018H
	DB	0eH
	DB	00H
	DB	00H
	DB	00H
	DB	00H
	DB	00H
	DB	00H
	DB	06eH
	DB	03bH
	DB	00H
	DB	00H
	DB	00H
	DB	00H
	DB	00H
	DB	00H
	DB	00H
	DB	00H
	DB	00H
	DB	00H
	DB	00H
	DB	00H
	DB	00H
	DB	00H
	DB	00H
	DB	00H
	DB	08H
	DB	01cH
	DB	036H
	DB	063H
	DB	063H
	DB	063H
	DB	07fH
	DB	00H
	DB	00H
	DB	00H
	DB	00H
	DB	00H
	DB	00H
	DB	00H
	DB	03cH
	DB	066H
	DB	043H
	DB	03H
	DB	03H
	DB	03H
	DB	043H
	DB	066H
	DB	03cH
	DB	030H
	DB	060H
	DB	03eH
	DB	00H
	DB	00H
	DB	00H
	DB	00H
	DB	033H
	DB	00H
	DB	00H
	DB	033H
	DB	033H
	DB	033H
	DB	033H
	DB	033H
	DB	033H
	DB	06eH
	DB	00H
	DB	00H
	DB	00H
	DB	00H
	DB	00H
	DB	030H
	DB	018H
	DB	0cH
	DB	00H
	DB	03eH
	DB	063H
	DB	07fH
	DB	03H
	DB	03H
	DB	063H
	DB	03eH
	DB	00H
	DB	00H
	DB	00H
	DB	00H
	DB	00H
	DB	08H
	DB	01cH
	DB	036H
	DB	00H
	DB	01eH
	DB	030H
	DB	03eH
	DB	033H
	DB	033H
	DB	033H
	DB	06eH
	DB	00H
	DB	00H
	DB	00H
	DB	00H
	DB	00H
	DB	00H
	DB	033H
	DB	00H
	DB	00H
	DB	01eH
	DB	030H
	DB	03eH
	DB	033H
	DB	033H
	DB	033H
	DB	06eH
	DB	00H
	DB	00H
	DB	00H
	DB	00H
	DB	00H
	DB	06H
	DB	0cH
	DB	018H
	DB	00H
	DB	01eH
	DB	030H
	DB	03eH
	DB	033H
	DB	033H
	DB	033H
	DB	06eH
	DB	00H
	DB	00H
	DB	00H
	DB	00H
	DB	00H
	DB	01cH
	DB	036H
	DB	01cH
	DB	00H
	DB	01eH
	DB	030H
	DB	03eH
	DB	033H
	DB	033H
	DB	033H
	DB	06eH
	DB	00H
	DB	00H
	DB	00H
	DB	00H
	DB	00H
	DB	00H
	DB	00H
	DB	00H
	DB	03cH
	DB	066H
	DB	06H
	DB	06H
	DB	066H
	DB	03cH
	DB	030H
	DB	060H
	DB	03cH
	DB	00H
	DB	00H
	DB	00H
	DB	00H
	DB	08H
	DB	01cH
	DB	036H
	DB	00H
	DB	03eH
	DB	063H
	DB	07fH
	DB	03H
	DB	03H
	DB	063H
	DB	03eH
	DB	00H
	DB	00H
	DB	00H
	DB	00H
	DB	00H
	DB	00H
	DB	063H
	DB	00H
	DB	00H
	DB	03eH
	DB	063H
	DB	07fH
	DB	03H
	DB	03H
	DB	063H
	DB	03eH
	DB	00H
	DB	00H
	DB	00H
	DB	00H
	DB	00H
	DB	06H
	DB	0cH
	DB	018H
	DB	00H
	DB	03eH
	DB	063H
	DB	07fH
	DB	03H
	DB	03H
	DB	063H
	DB	03eH
	DB	00H
	DB	00H
	DB	00H
	DB	00H
	DB	00H
	DB	00H
	DB	066H
	DB	00H
	DB	00H
	DB	01cH
	DB	018H
	DB	018H
	DB	018H
	DB	018H
	DB	018H
	DB	03cH
	DB	00H
	DB	00H
	DB	00H
	DB	00H
	DB	00H
	DB	018H
	DB	03cH
	DB	066H
	DB	00H
	DB	01cH
	DB	018H
	DB	018H
	DB	018H
	DB	018H
	DB	018H
	DB	03cH
	DB	00H
	DB	00H
	DB	00H
	DB	00H
	DB	00H
	DB	06H
	DB	0cH
	DB	018H
	DB	00H
	DB	01cH
	DB	018H
	DB	018H
	DB	018H
	DB	018H
	DB	018H
	DB	03cH
	DB	00H
	DB	00H
	DB	00H
	DB	00H
	DB	00H
	DB	063H
	DB	00H
	DB	08H
	DB	01cH
	DB	036H
	DB	063H
	DB	063H
	DB	07fH
	DB	063H
	DB	063H
	DB	063H
	DB	00H
	DB	00H
	DB	00H
	DB	00H
	DB	01cH
	DB	036H
	DB	01cH
	DB	00H
	DB	01cH
	DB	036H
	DB	063H
	DB	063H
	DB	07fH
	DB	063H
	DB	063H
	DB	063H
	DB	00H
	DB	00H
	DB	00H
	DB	00H
	DB	018H
	DB	0cH
	DB	06H
	DB	00H
	DB	07fH
	DB	066H
	DB	06H
	DB	03eH
	DB	06H
	DB	06H
	DB	066H
	DB	07fH
	DB	00H
	DB	00H
	DB	00H
	DB	00H
	DB	00H
	DB	00H
	DB	00H
	DB	00H
	DB	00H
	DB	033H
	DB	06eH
	DB	06cH
	DB	07eH
	DB	01bH
	DB	01bH
	DB	076H
	DB	00H
	DB	00H
	DB	00H
	DB	00H
	DB	00H
	DB	00H
	DB	07cH
	DB	036H
	DB	033H
	DB	033H
	DB	07fH
	DB	033H
	DB	033H
	DB	033H
	DB	033H
	DB	073H
	DB	00H
	DB	00H
	DB	00H
	DB	00H
	DB	00H
	DB	08H
	DB	01cH
	DB	036H
	DB	00H
	DB	03eH
	DB	063H
	DB	063H
	DB	063H
	DB	063H
	DB	063H
	DB	03eH
	DB	00H
	DB	00H
	DB	00H
	DB	00H
	DB	00H
	DB	00H
	DB	063H
	DB	00H
	DB	00H
	DB	03eH
	DB	063H
	DB	063H
	DB	063H
	DB	063H
	DB	063H
	DB	03eH
	DB	00H
	DB	00H
	DB	00H
	DB	00H
	DB	00H
	DB	06H
	DB	0cH
	DB	018H
	DB	00H
	DB	03eH
	DB	063H
	DB	063H
	DB	063H
	DB	063H
	DB	063H
	DB	03eH
	DB	00H
	DB	00H
	DB	00H
	DB	00H
	DB	00H
	DB	0cH
	DB	01eH
	DB	033H
	DB	00H
	DB	033H
	DB	033H
	DB	033H
	DB	033H
	DB	033H
	DB	033H
	DB	06eH
	DB	00H
	DB	00H
	DB	00H
	DB	00H
	DB	00H
	DB	06H
	DB	0cH
	DB	018H
	DB	00H
	DB	033H
	DB	033H
	DB	033H
	DB	033H
	DB	033H
	DB	033H
	DB	06eH
	DB	00H
	DB	00H
	DB	00H
	DB	00H
	DB	00H
	DB	00H
	DB	063H
	DB	00H
	DB	00H
	DB	063H
	DB	063H
	DB	063H
	DB	063H
	DB	063H
	DB	063H
	DB	07eH
	DB	060H
	DB	030H
	DB	01eH
	DB	00H
	DB	00H
	DB	063H
	DB	00H
	DB	03eH
	DB	063H
	DB	063H
	DB	063H
	DB	063H
	DB	063H
	DB	063H
	DB	063H
	DB	03eH
	DB	00H
	DB	00H
	DB	00H
	DB	00H
	DB	00H
	DB	063H
	DB	00H
	DB	063H
	DB	063H
	DB	063H
	DB	063H
	DB	063H
	DB	063H
	DB	063H
	DB	063H
	DB	03eH
	DB	00H
	DB	00H
	DB	00H
	DB	00H
	DB	00H
	DB	018H
	DB	018H
	DB	03cH
	DB	066H
	DB	06H
	DB	06H
	DB	06H
	DB	066H
	DB	03cH
	DB	018H
	DB	018H
	DB	00H
	DB	00H
	DB	00H
	DB	00H
	DB	00H
	DB	01cH
	DB	036H
	DB	026H
	DB	06H
	DB	0fH
	DB	06H
	DB	06H
	DB	06H
	DB	06H
	DB	067H
	DB	03fH
	DB	00H
	DB	00H
	DB	00H
	DB	00H
	DB	00H
	DB	00H
	DB	066H
	DB	066H
	DB	03cH
	DB	018H
	DB	07eH
	DB	018H
	DB	07eH
	DB	018H
	DB	018H
	DB	018H
	DB	00H
	DB	00H
	DB	00H
	DB	00H
	DB	00H
	DB	01fH
	DB	033H
	DB	033H
	DB	01fH
	DB	023H
	DB	033H
	DB	07bH
	DB	033H
	DB	033H
	DB	033H
	DB	063H
	DB	00H
	DB	00H
	DB	00H
	DB	00H
	DB	00H
	DB	070H
	DB	0d8H
	DB	018H
	DB	018H
	DB	018H
	DB	07eH
	DB	018H
	DB	018H
	DB	018H
	DB	018H
	DB	018H
	DB	01bH
	DB	0eH
	DB	00H
	DB	00H
	DB	00H
	DB	018H
	DB	0cH
	DB	06H
	DB	00H
	DB	01eH
	DB	030H
	DB	03eH
	DB	033H
	DB	033H
	DB	033H
	DB	06eH
	DB	00H
	DB	00H
	DB	00H
	DB	00H
	DB	00H
	DB	030H
	DB	018H
	DB	0cH
	DB	00H
	DB	01cH
	DB	018H
	DB	018H
	DB	018H
	DB	018H
	DB	018H
	DB	03cH
	DB	00H
	DB	00H
	DB	00H
	DB	00H
	DB	00H
	DB	018H
	DB	0cH
	DB	06H
	DB	00H
	DB	03eH
	DB	063H
	DB	063H
	DB	063H
	DB	063H
	DB	063H
	DB	03eH
	DB	00H
	DB	00H
	DB	00H
	DB	00H
	DB	00H
	DB	018H
	DB	0cH
	DB	06H
	DB	00H
	DB	033H
	DB	033H
	DB	033H
	DB	033H
	DB	033H
	DB	033H
	DB	06eH
	DB	00H
	DB	00H
	DB	00H
	DB	00H
	DB	00H
	DB	00H
	DB	06eH
	DB	03bH
	DB	00H
	DB	03bH
	DB	066H
	DB	066H
	DB	066H
	DB	066H
	DB	066H
	DB	066H
	DB	00H
	DB	00H
	DB	00H
	DB	00H
	DB	06eH
	DB	03bH
	DB	00H
	DB	063H
	DB	067H
	DB	06fH
	DB	07fH
	DB	07bH
	DB	073H
	DB	063H
	DB	063H
	DB	063H
	DB	00H
	DB	00H
	DB	00H
	DB	00H
	DB	00H
	DB	03cH
	DB	036H
	DB	036H
	DB	07cH
	DB	00H
	DB	07eH
	DB	00H
	DB	00H
	DB	00H
	DB	00H
	DB	00H
	DB	00H
	DB	00H
	DB	00H
	DB	00H
	DB	00H
	DB	01cH
	DB	036H
	DB	036H
	DB	01cH
	DB	00H
	DB	03eH
	DB	00H
	DB	00H
	DB	00H
	DB	00H
	DB	00H
	DB	00H
	DB	00H
	DB	00H
	DB	00H
	DB	00H
	DB	00H
	DB	0cH
	DB	0cH
	DB	00H
	DB	0cH
	DB	0cH
	DB	06H
	DB	03H
	DB	063H
	DB	063H
	DB	03eH
	DB	00H
	DB	00H
	DB	00H
	DB	00H
	DB	00H
	DB	00H
	DB	00H
	DB	00H
	DB	00H
	DB	00H
	DB	07fH
	DB	03H
	DB	03H
	DB	03H
	DB	03H
	DB	00H
	DB	00H
	DB	00H
	DB	00H
	DB	00H
	DB	00H
	DB	00H
	DB	00H
	DB	00H
	DB	00H
	DB	00H
	DB	07fH
	DB	060H
	DB	060H
	DB	060H
	DB	060H
	DB	00H
	DB	00H
	DB	00H
	DB	00H
	DB	00H
	DB	00H
	DB	03H
	DB	03H
	DB	043H
	DB	063H
	DB	033H
	DB	018H
	DB	0cH
	DB	06H
	DB	03bH
	DB	061H
	DB	030H
	DB	018H
	DB	07cH
	DB	00H
	DB	00H
	DB	00H
	DB	03H
	DB	03H
	DB	043H
	DB	063H
	DB	033H
	DB	018H
	DB	0cH
	DB	066H
	DB	073H
	DB	079H
	DB	07cH
	DB	060H
	DB	060H
	DB	00H
	DB	00H
	DB	00H
	DB	00H
	DB	018H
	DB	018H
	DB	00H
	DB	018H
	DB	018H
	DB	018H
	DB	03cH
	DB	03cH
	DB	03cH
	DB	018H
	DB	00H
	DB	00H
	DB	00H
	DB	00H
	DB	00H
	DB	00H
	DB	00H
	DB	00H
	DB	00H
	DB	06cH
	DB	036H
	DB	01bH
	DB	036H
	DB	06cH
	DB	00H
	DB	00H
	DB	00H
	DB	00H
	DB	00H
	DB	00H
	DB	00H
	DB	00H
	DB	00H
	DB	00H
	DB	00H
	DB	01bH
	DB	036H
	DB	06cH
	DB	036H
	DB	01bH
	DB	00H
	DB	00H
	DB	00H
	DB	00H
	DB	00H
	DB	00H
	DB	088H
	DB	022H
	DB	088H
	DB	022H
	DB	088H
	DB	022H
	DB	088H
	DB	022H
	DB	088H
	DB	022H
	DB	088H
	DB	022H
	DB	088H
	DB	022H
	DB	088H
	DB	022H
	DB	0aaH
	DB	055H
	DB	0aaH
	DB	055H
	DB	0aaH
	DB	055H
	DB	0aaH
	DB	055H
	DB	0aaH
	DB	055H
	DB	0aaH
	DB	055H
	DB	0aaH
	DB	055H
	DB	0aaH
	DB	055H
	DB	0bbH
	DB	0eeH
	DB	0bbH
	DB	0eeH
	DB	0bbH
	DB	0eeH
	DB	0bbH
	DB	0eeH
	DB	0bbH
	DB	0eeH
	DB	0bbH
	DB	0eeH
	DB	0bbH
	DB	0eeH
	DB	0bbH
	DB	0eeH
	DB	018H
	DB	018H
	DB	018H
	DB	018H
	DB	018H
	DB	018H
	DB	018H
	DB	018H
	DB	018H
	DB	018H
	DB	018H
	DB	018H
	DB	018H
	DB	018H
	DB	018H
	DB	018H
	DB	018H
	DB	018H
	DB	018H
	DB	018H
	DB	018H
	DB	018H
	DB	018H
	DB	01fH
	DB	018H
	DB	018H
	DB	018H
	DB	018H
	DB	018H
	DB	018H
	DB	018H
	DB	018H
	DB	018H
	DB	018H
	DB	018H
	DB	018H
	DB	018H
	DB	01fH
	DB	018H
	DB	01fH
	DB	018H
	DB	018H
	DB	018H
	DB	018H
	DB	018H
	DB	018H
	DB	018H
	DB	018H
	DB	06cH
	DB	06cH
	DB	06cH
	DB	06cH
	DB	06cH
	DB	06cH
	DB	06cH
	DB	06fH
	DB	06cH
	DB	06cH
	DB	06cH
	DB	06cH
	DB	06cH
	DB	06cH
	DB	06cH
	DB	06cH
	DB	00H
	DB	00H
	DB	00H
	DB	00H
	DB	00H
	DB	00H
	DB	00H
	DB	07fH
	DB	06cH
	DB	06cH
	DB	06cH
	DB	06cH
	DB	06cH
	DB	06cH
	DB	06cH
	DB	06cH
	DB	00H
	DB	00H
	DB	00H
	DB	00H
	DB	00H
	DB	01fH
	DB	018H
	DB	01fH
	DB	018H
	DB	018H
	DB	018H
	DB	018H
	DB	018H
	DB	018H
	DB	018H
	DB	018H
	DB	06cH
	DB	06cH
	DB	06cH
	DB	06cH
	DB	06cH
	DB	06fH
	DB	060H
	DB	06fH
	DB	06cH
	DB	06cH
	DB	06cH
	DB	06cH
	DB	06cH
	DB	06cH
	DB	06cH
	DB	06cH
	DB	06cH
	DB	06cH
	DB	06cH
	DB	06cH
	DB	06cH
	DB	06cH
	DB	06cH
	DB	06cH
	DB	06cH
	DB	06cH
	DB	06cH
	DB	06cH
	DB	06cH
	DB	06cH
	DB	06cH
	DB	06cH
	DB	00H
	DB	00H
	DB	00H
	DB	00H
	DB	00H
	DB	07fH
	DB	060H
	DB	06fH
	DB	06cH
	DB	06cH
	DB	06cH
	DB	06cH
	DB	06cH
	DB	06cH
	DB	06cH
	DB	06cH
	DB	06cH
	DB	06cH
	DB	06cH
	DB	06cH
	DB	06cH
	DB	06fH
	DB	060H
	DB	07fH
	DB	00H
	DB	00H
	DB	00H
	DB	00H
	DB	00H
	DB	00H
	DB	00H
	DB	00H
	DB	06cH
	DB	06cH
	DB	06cH
	DB	06cH
	DB	06cH
	DB	06cH
	DB	06cH
	DB	07fH
	DB	00H
	DB	00H
	DB	00H
	DB	00H
	DB	00H
	DB	00H
	DB	00H
	DB	00H
	DB	018H
	DB	018H
	DB	018H
	DB	018H
	DB	018H
	DB	01fH
	DB	018H
	DB	01fH
	DB	00H
	DB	00H
	DB	00H
	DB	00H
	DB	00H
	DB	00H
	DB	00H
	DB	00H
	DB	00H
	DB	00H
	DB	00H
	DB	00H
	DB	00H
	DB	00H
	DB	00H
	DB	01fH
	DB	018H
	DB	018H
	DB	018H
	DB	018H
	DB	018H
	DB	018H
	DB	018H
	DB	018H
	DB	018H
	DB	018H
	DB	018H
	DB	018H
	DB	018H
	DB	018H
	DB	018H
	DB	0f8H
	DB	00H
	DB	00H
	DB	00H
	DB	00H
	DB	00H
	DB	00H
	DB	00H
	DB	00H
	DB	018H
	DB	018H
	DB	018H
	DB	018H
	DB	018H
	DB	018H
	DB	018H
	DB	0ffH
	DB	00H
	DB	00H
	DB	00H
	DB	00H
	DB	00H
	DB	00H
	DB	00H
	DB	00H
	DB	00H
	DB	00H
	DB	00H
	DB	00H
	DB	00H
	DB	00H
	DB	00H
	DB	0ffH
	DB	018H
	DB	018H
	DB	018H
	DB	018H
	DB	018H
	DB	018H
	DB	018H
	DB	018H
	DB	018H
	DB	018H
	DB	018H
	DB	018H
	DB	018H
	DB	018H
	DB	018H
	DB	0f8H
	DB	018H
	DB	018H
	DB	018H
	DB	018H
	DB	018H
	DB	018H
	DB	018H
	DB	018H
	DB	00H
	DB	00H
	DB	00H
	DB	00H
	DB	00H
	DB	00H
	DB	00H
	DB	0ffH
	DB	00H
	DB	00H
	DB	00H
	DB	00H
	DB	00H
	DB	00H
	DB	00H
	DB	00H
	DB	018H
	DB	018H
	DB	018H
	DB	018H
	DB	018H
	DB	018H
	DB	018H
	DB	0ffH
	DB	018H
	DB	018H
	DB	018H
	DB	018H
	DB	018H
	DB	018H
	DB	018H
	DB	018H
	DB	018H
	DB	018H
	DB	018H
	DB	018H
	DB	018H
	DB	0f8H
	DB	018H
	DB	0f8H
	DB	018H
	DB	018H
	DB	018H
	DB	018H
	DB	018H
	DB	018H
	DB	018H
	DB	018H
	DB	06cH
	DB	06cH
	DB	06cH
	DB	06cH
	DB	06cH
	DB	06cH
	DB	06cH
	DB	0ecH
	DB	06cH
	DB	06cH
	DB	06cH
	DB	06cH
	DB	06cH
	DB	06cH
	DB	06cH
	DB	06cH
	DB	06cH
	DB	06cH
	DB	06cH
	DB	06cH
	DB	06cH
	DB	0ecH
	DB	0cH
	DB	0fcH
	DB	00H
	DB	00H
	DB	00H
	DB	00H
	DB	00H
	DB	00H
	DB	00H
	DB	00H
	DB	00H
	DB	00H
	DB	00H
	DB	00H
	DB	00H
	DB	0fcH
	DB	0cH
	DB	0ecH
	DB	06cH
	DB	06cH
	DB	06cH
	DB	06cH
	DB	06cH
	DB	06cH
	DB	06cH
	DB	06cH
	DB	06cH
	DB	06cH
	DB	06cH
	DB	06cH
	DB	06cH
	DB	0efH
	DB	00H
	DB	0ffH
	DB	00H
	DB	00H
	DB	00H
	DB	00H
	DB	00H
	DB	00H
	DB	00H
	DB	00H
	DB	00H
	DB	00H
	DB	00H
	DB	00H
	DB	00H
	DB	0ffH
	DB	00H
	DB	0efH
	DB	06cH
	DB	06cH
	DB	06cH
	DB	06cH
	DB	06cH
	DB	06cH
	DB	06cH
	DB	06cH
	DB	06cH
	DB	06cH
	DB	06cH
	DB	06cH
	DB	06cH
	DB	0ecH
	DB	0cH
	DB	0ecH
	DB	06cH
	DB	06cH
	DB	06cH
	DB	06cH
	DB	06cH
	DB	06cH
	DB	06cH
	DB	06cH
	DB	00H
	DB	00H
	DB	00H
	DB	00H
	DB	00H
	DB	0ffH
	DB	00H
	DB	0ffH
	DB	00H
	DB	00H
	DB	00H
	DB	00H
	DB	00H
	DB	00H
	DB	00H
	DB	00H
	DB	06cH
	DB	06cH
	DB	06cH
	DB	06cH
	DB	06cH
	DB	0efH
	DB	00H
	DB	0efH
	DB	06cH
	DB	06cH
	DB	06cH
	DB	06cH
	DB	06cH
	DB	06cH
	DB	06cH
	DB	06cH
	DB	018H
	DB	018H
	DB	018H
	DB	018H
	DB	018H
	DB	0ffH
	DB	00H
	DB	0ffH
	DB	00H
	DB	00H
	DB	00H
	DB	00H
	DB	00H
	DB	00H
	DB	00H
	DB	00H
	DB	06cH
	DB	06cH
	DB	06cH
	DB	06cH
	DB	06cH
	DB	06cH
	DB	06cH
	DB	0ffH
	DB	00H
	DB	00H
	DB	00H
	DB	00H
	DB	00H
	DB	00H
	DB	00H
	DB	00H
	DB	00H
	DB	00H
	DB	00H
	DB	00H
	DB	00H
	DB	0ffH
	DB	00H
	DB	0ffH
	DB	018H
	DB	018H
	DB	018H
	DB	018H
	DB	018H
	DB	018H
	DB	018H
	DB	018H
	DB	00H
	DB	00H
	DB	00H
	DB	00H
	DB	00H
	DB	00H
	DB	00H
	DB	0ffH
	DB	06cH
	DB	06cH
	DB	06cH
	DB	06cH
	DB	06cH
	DB	06cH
	DB	06cH
	DB	06cH
	DB	06cH
	DB	06cH
	DB	06cH
	DB	06cH
	DB	06cH
	DB	06cH
	DB	06cH
	DB	0fcH
	DB	00H
	DB	00H
	DB	00H
	DB	00H
	DB	00H
	DB	00H
	DB	00H
	DB	00H
	DB	018H
	DB	018H
	DB	018H
	DB	018H
	DB	018H
	DB	0f8H
	DB	018H
	DB	0f8H
	DB	00H
	DB	00H
	DB	00H
	DB	00H
	DB	00H
	DB	00H
	DB	00H
	DB	00H
	DB	00H
	DB	00H
	DB	00H
	DB	00H
	DB	00H
	DB	0f8H
	DB	018H
	DB	0f8H
	DB	018H
	DB	018H
	DB	018H
	DB	018H
	DB	018H
	DB	018H
	DB	018H
	DB	018H
	DB	00H
	DB	00H
	DB	00H
	DB	00H
	DB	00H
	DB	00H
	DB	00H
	DB	0fcH
	DB	06cH
	DB	06cH
	DB	06cH
	DB	06cH
	DB	06cH
	DB	06cH
	DB	06cH
	DB	06cH
	DB	06cH
	DB	06cH
	DB	06cH
	DB	06cH
	DB	06cH
	DB	06cH
	DB	06cH
	DB	0ffH
	DB	06cH
	DB	06cH
	DB	06cH
	DB	06cH
	DB	06cH
	DB	06cH
	DB	06cH
	DB	06cH
	DB	018H
	DB	018H
	DB	018H
	DB	018H
	DB	018H
	DB	0ffH
	DB	018H
	DB	0ffH
	DB	018H
	DB	018H
	DB	018H
	DB	018H
	DB	018H
	DB	018H
	DB	018H
	DB	018H
	DB	018H
	DB	018H
	DB	018H
	DB	018H
	DB	018H
	DB	018H
	DB	018H
	DB	01fH
	DB	00H
	DB	00H
	DB	00H
	DB	00H
	DB	00H
	DB	00H
	DB	00H
	DB	00H
	DB	00H
	DB	00H
	DB	00H
	DB	00H
	DB	00H
	DB	00H
	DB	00H
	DB	0f8H
	DB	018H
	DB	018H
	DB	018H
	DB	018H
	DB	018H
	DB	018H
	DB	018H
	DB	018H
	DB	0ffH
	DB	0ffH
	DB	0ffH
	DB	0ffH
	DB	0ffH
	DB	0ffH
	DB	0ffH
	DB	0ffH
	DB	0ffH
	DB	0ffH
	DB	0ffH
	DB	0ffH
	DB	0ffH
	DB	0ffH
	DB	0ffH
	DB	0ffH
	DB	00H
	DB	00H
	DB	00H
	DB	00H
	DB	00H
	DB	00H
	DB	00H
	DB	0ffH
	DB	0ffH
	DB	0ffH
	DB	0ffH
	DB	0ffH
	DB	0ffH
	DB	0ffH
	DB	0ffH
	DB	0ffH
	DB	0fH
	DB	0fH
	DB	0fH
	DB	0fH
	DB	0fH
	DB	0fH
	DB	0fH
	DB	0fH
	DB	0fH
	DB	0fH
	DB	0fH
	DB	0fH
	DB	0fH
	DB	0fH
	DB	0fH
	DB	0fH
	DB	0f0H
	DB	0f0H
	DB	0f0H
	DB	0f0H
	DB	0f0H
	DB	0f0H
	DB	0f0H
	DB	0f0H
	DB	0f0H
	DB	0f0H
	DB	0f0H
	DB	0f0H
	DB	0f0H
	DB	0f0H
	DB	0f0H
	DB	0f0H
	DB	0ffH
	DB	0ffH
	DB	0ffH
	DB	0ffH
	DB	0ffH
	DB	0ffH
	DB	0ffH
	DB	00H
	DB	00H
	DB	00H
	DB	00H
	DB	00H
	DB	00H
	DB	00H
	DB	00H
	DB	00H
	DB	00H
	DB	00H
	DB	00H
	DB	00H
	DB	00H
	DB	06eH
	DB	03bH
	DB	01bH
	DB	01bH
	DB	01bH
	DB	03bH
	DB	06eH
	DB	00H
	DB	00H
	DB	00H
	DB	00H
	DB	00H
	DB	00H
	DB	01eH
	DB	033H
	DB	033H
	DB	033H
	DB	01bH
	DB	033H
	DB	063H
	DB	063H
	DB	063H
	DB	033H
	DB	00H
	DB	00H
	DB	00H
	DB	00H
	DB	00H
	DB	00H
	DB	07fH
	DB	063H
	DB	063H
	DB	03H
	DB	03H
	DB	03H
	DB	03H
	DB	03H
	DB	03H
	DB	03H
	DB	00H
	DB	00H
	DB	00H
	DB	00H
	DB	00H
	DB	00H
	DB	00H
	DB	00H
	DB	07fH
	DB	036H
	DB	036H
	DB	036H
	DB	036H
	DB	036H
	DB	036H
	DB	036H
	DB	00H
	DB	00H
	DB	00H
	DB	00H
	DB	00H
	DB	00H
	DB	00H
	DB	07fH
	DB	063H
	DB	06H
	DB	0cH
	DB	018H
	DB	0cH
	DB	06H
	DB	063H
	DB	07fH
	DB	00H
	DB	00H
	DB	00H
	DB	00H
	DB	00H
	DB	00H
	DB	00H
	DB	00H
	DB	00H
	DB	07eH
	DB	01bH
	DB	01bH
	DB	01bH
	DB	01bH
	DB	01bH
	DB	0eH
	DB	00H
	DB	00H
	DB	00H
	DB	00H
	DB	00H
	DB	00H
	DB	00H
	DB	00H
	DB	066H
	DB	066H
	DB	066H
	DB	066H
	DB	066H
	DB	03eH
	DB	06H
	DB	06H
	DB	03H
	DB	00H
	DB	00H
	DB	00H
	DB	00H
	DB	00H
	DB	00H
	DB	00H
	DB	06eH
	DB	03bH
	DB	018H
	DB	018H
	DB	018H
	DB	018H
	DB	018H
	DB	018H
	DB	00H
	DB	00H
	DB	00H
	DB	00H
	DB	00H
	DB	00H
	DB	00H
	DB	07eH
	DB	018H
	DB	03cH
	DB	066H
	DB	066H
	DB	066H
	DB	03cH
	DB	018H
	DB	07eH
	DB	00H
	DB	00H
	DB	00H
	DB	00H
	DB	00H
	DB	00H
	DB	00H
	DB	01cH
	DB	036H
	DB	063H
	DB	063H
	DB	07fH
	DB	063H
	DB	063H
	DB	036H
	DB	01cH
	DB	00H
	DB	00H
	DB	00H
	DB	00H
	DB	00H
	DB	00H
	DB	01cH
	DB	036H
	DB	063H
	DB	063H
	DB	063H
	DB	036H
	DB	036H
	DB	036H
	DB	036H
	DB	077H
	DB	00H
	DB	00H
	DB	00H
	DB	00H
	DB	00H
	DB	00H
	DB	078H
	DB	0cH
	DB	018H
	DB	030H
	DB	07cH
	DB	066H
	DB	066H
	DB	066H
	DB	066H
	DB	03cH
	DB	00H
	DB	00H
	DB	00H
	DB	00H
	DB	00H
	DB	00H
	DB	00H
	DB	00H
	DB	00H
	DB	07eH
	DB	0dbH
	DB	0dbH
	DB	0dbH
	DB	07eH
	DB	00H
	DB	00H
	DB	00H
	DB	00H
	DB	00H
	DB	00H
	DB	00H
	DB	00H
	DB	00H
	DB	0c0H
	DB	060H
	DB	07eH
	DB	0dbH
	DB	0dbH
	DB	0cfH
	DB	07eH
	DB	06H
	DB	03H
	DB	00H
	DB	00H
	DB	00H
	DB	00H
	DB	00H
	DB	00H
	DB	038H
	DB	0cH
	DB	06H
	DB	06H
	DB	03eH
	DB	06H
	DB	06H
	DB	06H
	DB	0cH
	DB	038H
	DB	00H
	DB	00H
	DB	00H
	DB	00H
	DB	00H
	DB	00H
	DB	00H
	DB	03eH
	DB	063H
	DB	063H
	DB	063H
	DB	063H
	DB	063H
	DB	063H
	DB	063H
	DB	063H
	DB	00H
	DB	00H
	DB	00H
	DB	00H
	DB	00H
	DB	00H
	DB	00H
	DB	00H
	DB	07fH
	DB	00H
	DB	00H
	DB	07fH
	DB	00H
	DB	00H
	DB	07fH
	DB	00H
	DB	00H
	DB	00H
	DB	00H
	DB	00H
	DB	00H
	DB	00H
	DB	00H
	DB	00H
	DB	018H
	DB	018H
	DB	07eH
	DB	018H
	DB	018H
	DB	00H
	DB	00H
	DB	0ffH
	DB	00H
	DB	00H
	DB	00H
	DB	00H
	DB	00H
	DB	00H
	DB	00H
	DB	0cH
	DB	018H
	DB	030H
	DB	060H
	DB	030H
	DB	018H
	DB	0cH
	DB	00H
	DB	07eH
	DB	00H
	DB	00H
	DB	00H
	DB	00H
	DB	00H
	DB	00H
	DB	00H
	DB	030H
	DB	018H
	DB	0cH
	DB	06H
	DB	0cH
	DB	018H
	DB	030H
	DB	00H
	DB	07eH
	DB	00H
	DB	00H
	DB	00H
	DB	00H
	DB	00H
	DB	00H
	DB	070H
	DB	0d8H
	DB	0d8H
	DB	018H
	DB	018H
	DB	018H
	DB	018H
	DB	018H
	DB	018H
	DB	018H
	DB	018H
	DB	018H
	DB	018H
	DB	018H
	DB	018H
	DB	018H
	DB	018H
	DB	018H
	DB	018H
	DB	018H
	DB	018H
	DB	018H
	DB	01bH
	DB	01bH
	DB	01bH
	DB	0eH
	DB	00H
	DB	00H
	DB	00H
	DB	00H
	DB	00H
	DB	00H
	DB	00H
	DB	00H
	DB	018H
	DB	018H
	DB	00H
	DB	07eH
	DB	00H
	DB	018H
	DB	018H
	DB	00H
	DB	00H
	DB	00H
	DB	00H
	DB	00H
	DB	00H
	DB	00H
	DB	00H
	DB	00H
	DB	00H
	DB	06eH
	DB	03bH
	DB	00H
	DB	06eH
	DB	03bH
	DB	00H
	DB	00H
	DB	00H
	DB	00H
	DB	00H
	DB	00H
	DB	00H
	DB	01cH
	DB	036H
	DB	036H
	DB	01cH
	DB	00H
	DB	00H
	DB	00H
	DB	00H
	DB	00H
	DB	00H
	DB	00H
	DB	00H
	DB	00H
	DB	00H
	DB	00H
	DB	00H
	DB	00H
	DB	00H
	DB	00H
	DB	00H
	DB	00H
	DB	00H
	DB	018H
	DB	018H
	DB	00H
	DB	00H
	DB	00H
	DB	00H
	DB	00H
	DB	00H
	DB	00H
	DB	00H
	DB	00H
	DB	00H
	DB	00H
	DB	00H
	DB	00H
	DB	00H
	DB	00H
	DB	018H
	DB	00H
	DB	00H
	DB	00H
	DB	00H
	DB	00H
	DB	00H
	DB	00H
	DB	00H
	DB	0f0H
	DB	030H
	DB	030H
	DB	030H
	DB	030H
	DB	030H
	DB	037H
	DB	036H
	DB	036H
	DB	03cH
	DB	038H
	DB	00H
	DB	00H
	DB	00H
	DB	00H
	DB	00H
	DB	01bH
	DB	036H
	DB	036H
	DB	036H
	DB	036H
	DB	036H
	DB	00H
	DB	00H
	DB	00H
	DB	00H
	DB	00H
	DB	00H
	DB	00H
	DB	00H
	DB	00H
	DB	00H
	DB	0eH
	DB	01bH
	DB	0cH
	DB	06H
	DB	013H
	DB	01fH
	DB	00H
	DB	00H
	DB	00H
	DB	00H
	DB	00H
	DB	00H
	DB	00H
	DB	00H
	DB	00H
	DB	00H
	DB	00H
	DB	00H
	DB	00H
	DB	03eH
	DB	03eH
	DB	03eH
	DB	03eH
	DB	03eH
	DB	03eH
	DB	03eH
	DB	00H
	DB	00H
	DB	00H
	DB	00H
	DB	00H
	DB	00H
	DB	00H
	DB	00H
	DB	00H
	DB	00H
	DB	00H
	DB	00H
	DB	00H
	DB	00H
	DB	00H
	DB	00H
	DB	00H
	DB	00H
	DB	00H
	DB	00H
	DB	00H
CONST	ENDS
PUBLIC	?au_draw_pixel@@YAXIII@Z			; au_draw_pixel
PUBLIC	?au_puts@@YAXPEBD@Z				; au_puts
PUBLIC	?au_putc@@YAXD@Z				; au_putc
EXTRN	?aulib_get_fb_address@@YAPEAIXZ:PROC		; aulib_get_fb_address
EXTRN	?aulib_get_x_resolution@@YAIXZ:PROC		; aulib_get_x_resolution
EXTRN	?aulib_get_y_resolution@@YAIXZ:PROC		; aulib_get_y_resolution
pdata	SEGMENT
$pdata$?au_draw_pixel@@YAXIII@Z DD imagerel $LN3
	DD	imagerel $LN3+68
	DD	imagerel $unwind$?au_draw_pixel@@YAXIII@Z
$pdata$?au_puts@@YAXPEBD@Z DD imagerel $LN27
	DD	imagerel $LN27+745
	DD	imagerel $unwind$?au_puts@@YAXPEBD@Z
$pdata$?au_putc@@YAXD@Z DD imagerel $LN16
	DD	imagerel $LN16+565
	DD	imagerel $unwind$?au_putc@@YAXD@Z
pdata	ENDS
xdata	SEGMENT
$unwind$?au_draw_pixel@@YAXIII@Z DD 011101H
	DD	06211H
$unwind$?au_puts@@YAXPEBD@Z DD 030b01H
	DD	07007e20bH
	DD	06006H
$unwind$?au_putc@@YAXD@Z DD 010801H
	DD	0e208H
xdata	ENDS
; Function compile flags: /Odtp
; File e:\aurora kernel\ldr\auldr\graphics.cpp
_TEXT	SEGMENT
i$1 = 32
y$2 = 40
x$3 = 48
v_res$ = 56
h_res$ = 64
lfb$ = 72
entry$4 = 80
framebuffer$ = 88
tv146 = 96
str$ = 128
?au_putc@@YAXD@Z PROC					; au_putc

; 100  : void au_putc(char str){

$LN16:
	mov	BYTE PTR [rsp+8], cl
	sub	rsp, 120				; 00000078H

; 101  : 	uint32_t* framebuffer = aulib_get_fb_address();

	call	?aulib_get_fb_address@@YAPEAIXZ		; aulib_get_fb_address
	mov	QWORD PTR framebuffer$[rsp], rax

; 102  : 	size_t h_res = aulib_get_x_resolution();

	call	?aulib_get_x_resolution@@YAIXZ		; aulib_get_x_resolution
	mov	eax, eax
	mov	QWORD PTR h_res$[rsp], rax

; 103  : 	size_t v_res = aulib_get_y_resolution();

	call	?aulib_get_y_resolution@@YAIXZ		; aulib_get_y_resolution
	mov	eax, eax
	mov	QWORD PTR v_res$[rsp], rax

; 104  : 
; 105  : 	if (xpos > v_res / 9) {

	xor	edx, edx
	mov	rax, QWORD PTR v_res$[rsp]
	mov	ecx, 9
	div	rcx
	cmp	QWORD PTR ?xpos@@3_KA, rax		; xpos
	jbe	SHORT $LN13@au_putc

; 106  : 		xpos = 0;

	mov	QWORD PTR ?xpos@@3_KA, 0		; xpos

; 107  : 		ypos++;

	mov	rax, QWORD PTR ?ypos@@3_KA		; ypos
	inc	rax
	mov	QWORD PTR ?ypos@@3_KA, rax		; ypos
$LN13@au_putc:

; 108  : 	}
; 109  : 	//draw it
; 110  : 
; 111  : 	for (size_t y = 0; y < 16; ++y){

	mov	QWORD PTR y$2[rsp], 0
	jmp	SHORT $LN12@au_putc
$LN11@au_putc:
	mov	rax, QWORD PTR y$2[rsp]
	inc	rax
	mov	QWORD PTR y$2[rsp], rax
$LN12@au_putc:
	cmp	QWORD PTR y$2[rsp], 16
	jae	$LN10@au_putc

; 112  : 		for (size_t x = 0; x < 8; ++x){

	mov	QWORD PTR x$3[rsp], 0
	jmp	SHORT $LN9@au_putc
$LN8@au_putc:
	mov	rax, QWORD PTR x$3[rsp]
	inc	rax
	mov	QWORD PTR x$3[rsp], rax
$LN9@au_putc:
	cmp	QWORD PTR x$3[rsp], 8
	jae	$LN7@au_putc

; 113  : 			const bx_fontcharbitmap_t& entry = bx_vgafont[str];

	movsx	rax, BYTE PTR str$[rsp]
	imul	rax, rax, 16
	lea	rcx, OFFSET FLAT:bx_vgafont
	add	rcx, rax
	mov	rax, rcx
	mov	QWORD PTR entry$4[rsp], rax

; 114  : 			if (entry.data[y] & (1 << x)){

	mov	rax, QWORD PTR y$2[rsp]
	mov	rcx, QWORD PTR entry$4[rsp]
	add	rcx, rax
	mov	rax, rcx
	movzx	eax, BYTE PTR [rax]
	mov	rcx, QWORD PTR x$3[rsp]
	mov	edx, 1
	shl	edx, cl
	mov	ecx, edx
	and	eax, ecx
	test	eax, eax
	je	SHORT $LN6@au_putc

; 115  : 				au_draw_pixel(x + xpos * 9, y + ypos * 16, foreground);

	imul	rax, QWORD PTR ?ypos@@3_KA, 16		; ypos
	mov	rcx, QWORD PTR y$2[rsp]
	add	rcx, rax
	mov	rax, rcx
	imul	rcx, QWORD PTR ?xpos@@3_KA, 9		; xpos
	mov	rdx, QWORD PTR x$3[rsp]
	add	rdx, rcx
	mov	rcx, rdx
	mov	r8d, DWORD PTR ?foreground@@3IA		; foreground
	mov	edx, eax
	call	?au_draw_pixel@@YAXIII@Z		; au_draw_pixel

; 116  : 			}
; 117  : 			else{

	jmp	SHORT $LN5@au_putc
$LN6@au_putc:

; 118  : 				au_draw_pixel(x + xpos * 9, y + ypos * 16, background);

	imul	rax, QWORD PTR ?ypos@@3_KA, 16		; ypos
	mov	rcx, QWORD PTR y$2[rsp]
	add	rcx, rax
	mov	rax, rcx
	imul	rcx, QWORD PTR ?xpos@@3_KA, 9		; xpos
	mov	rdx, QWORD PTR x$3[rsp]
	add	rdx, rcx
	mov	rcx, rdx
	mov	r8d, DWORD PTR ?background@@3IA		; background
	mov	edx, eax
	call	?au_draw_pixel@@YAXIII@Z		; au_draw_pixel
$LN5@au_putc:

; 119  : 			}
; 120  : 		}

	jmp	$LN8@au_putc
$LN7@au_putc:

; 121  : 		au_draw_pixel(8 + xpos * 9, y + ypos * 16, background);

	imul	rax, QWORD PTR ?ypos@@3_KA, 16		; ypos
	mov	rcx, QWORD PTR y$2[rsp]
	add	rcx, rax
	mov	rax, rcx
	imul	rcx, QWORD PTR ?xpos@@3_KA, 9		; xpos
	add	rcx, 8
	mov	r8d, DWORD PTR ?background@@3IA		; background
	mov	edx, eax
	call	?au_draw_pixel@@YAXIII@Z		; au_draw_pixel

; 122  : 	}

	jmp	$LN11@au_putc
$LN10@au_putc:

; 123  : 
; 124  : 	xpos++;

	mov	rax, QWORD PTR ?xpos@@3_KA		; xpos
	inc	rax
	mov	QWORD PTR ?xpos@@3_KA, rax		; xpos

; 125  : 
; 126  : 	uint32_t *lfb = (uint32_t*)framebuffer;

	mov	rax, QWORD PTR framebuffer$[rsp]
	mov	QWORD PTR lfb$[rsp], rax

; 127  : 	if (ypos + 1> h_res / 16)

	mov	rax, QWORD PTR ?ypos@@3_KA		; ypos
	inc	rax
	mov	QWORD PTR tv146[rsp], rax
	xor	edx, edx
	mov	rax, QWORD PTR h_res$[rsp]
	mov	ecx, 16
	div	rcx
	mov	rcx, QWORD PTR tv146[rsp]
	cmp	rcx, rax
	jbe	SHORT $LN4@au_putc

; 128  : 	{
; 129  : 		for (int i = 16; i < h_res * v_res; i++)

	mov	DWORD PTR i$1[rsp], 16
	jmp	SHORT $LN3@au_putc
$LN2@au_putc:
	mov	eax, DWORD PTR i$1[rsp]
	inc	eax
	mov	DWORD PTR i$1[rsp], eax
$LN3@au_putc:
	movsxd	rax, DWORD PTR i$1[rsp]
	mov	rcx, QWORD PTR h_res$[rsp]
	imul	rcx, QWORD PTR v_res$[rsp]
	cmp	rax, rcx
	jae	SHORT $LN1@au_putc

; 130  : 			lfb[i] = lfb[i + v_res * 16];

	movsxd	rax, DWORD PTR i$1[rsp]
	imul	rcx, QWORD PTR v_res$[rsp], 16
	add	rax, rcx
	movsxd	rcx, DWORD PTR i$1[rsp]
	mov	rdx, QWORD PTR lfb$[rsp]
	mov	r8, QWORD PTR lfb$[rsp]
	mov	eax, DWORD PTR [r8+rax*4]
	mov	DWORD PTR [rdx+rcx*4], eax
	jmp	SHORT $LN2@au_putc
$LN1@au_putc:

; 131  : 		ypos--;

	mov	rax, QWORD PTR ?ypos@@3_KA		; ypos
	dec	rax
	mov	QWORD PTR ?ypos@@3_KA, rax		; ypos
$LN4@au_putc:

; 132  : 	}
; 133  : 
; 134  : }

	add	rsp, 120				; 00000078H
	ret	0
?au_putc@@YAXD@Z ENDP					; au_putc
_TEXT	ENDS
; Function compile flags: /Odtp
; File e:\aurora kernel\ldr\auldr\graphics.cpp
_TEXT	SEGMENT
i$1 = 32
y$2 = 40
x$3 = 48
h_res$ = 56
v_res$ = 64
framebuffer$ = 72
tv160 = 80
entry$4 = 88
str$ = 144
?au_puts@@YAXPEBD@Z PROC				; au_puts

; 35   : void au_puts(const char* str) {

$LN27:
	mov	QWORD PTR [rsp+8], rcx
	push	rsi
	push	rdi
	sub	rsp, 120				; 00000078H

; 36   : 	uint32_t* framebuffer = aulib_get_fb_address();

	call	?aulib_get_fb_address@@YAPEAIXZ		; aulib_get_fb_address
	mov	QWORD PTR framebuffer$[rsp], rax

; 37   : 	size_t h_res = aulib_get_x_resolution();

	call	?aulib_get_x_resolution@@YAIXZ		; aulib_get_x_resolution
	mov	eax, eax
	mov	QWORD PTR h_res$[rsp], rax

; 38   : 	size_t v_res = aulib_get_y_resolution();

	call	?aulib_get_y_resolution@@YAIXZ		; aulib_get_y_resolution
	mov	eax, eax
	mov	QWORD PTR v_res$[rsp], rax
$LN24@au_puts:

; 39   : 	while (*str){

	mov	rax, QWORD PTR str$[rsp]
	movsx	eax, BYTE PTR [rax]
	test	eax, eax
	je	$LN23@au_puts

; 40   : 
; 41   : 		if (*str > 0xFF){

	mov	rax, QWORD PTR str$[rsp]
	movsx	eax, BYTE PTR [rax]
	cmp	eax, 255				; 000000ffH
	jle	SHORT $LN22@au_puts
	jmp	$LN21@au_puts
$LN22@au_puts:

; 42   : 			//unicode
; 43   : 		}
; 44   : 		else if (*str == '\n'){

	mov	rax, QWORD PTR str$[rsp]
	movsx	eax, BYTE PTR [rax]
	cmp	eax, 10
	jne	SHORT $LN20@au_puts

; 45   : 			++ypos;

	mov	rax, QWORD PTR ?ypos@@3_KA		; ypos
	inc	rax
	mov	QWORD PTR ?ypos@@3_KA, rax		; ypos

; 46   : 			xpos = 0;

	mov	QWORD PTR ?xpos@@3_KA, 0		; xpos
	jmp	$LN19@au_puts
$LN20@au_puts:

; 47   : 		}
; 48   : 		else if (*str == '\r'){

	mov	rax, QWORD PTR str$[rsp]
	movsx	eax, BYTE PTR [rax]
	cmp	eax, 13
	jne	SHORT $LN18@au_puts
	jmp	$LN17@au_puts
$LN18@au_puts:

; 49   : 		}
; 50   : 		else if (*str == '\b'){

	mov	rax, QWORD PTR str$[rsp]
	movsx	eax, BYTE PTR [rax]
	cmp	eax, 8
	jne	SHORT $LN16@au_puts

; 51   : 			if (xpos > 0)

	cmp	QWORD PTR ?xpos@@3_KA, 0		; xpos
	jbe	SHORT $LN15@au_puts

; 52   : 				--xpos;

	mov	rax, QWORD PTR ?xpos@@3_KA		; xpos
	dec	rax
	mov	QWORD PTR ?xpos@@3_KA, rax		; xpos
$LN15@au_puts:

; 53   : 		}
; 54   : 		else {

	jmp	$LN14@au_puts
$LN16@au_puts:

; 55   : 
; 56   : 			//Yahoooo! Draw the character
; 57   : 			const bx_fontcharbitmap_t entry = bx_vgafont[*str];

	mov	rax, QWORD PTR str$[rsp]
	movsx	rax, BYTE PTR [rax]
	imul	rax, rax, 16
	lea	rcx, OFFSET FLAT:bx_vgafont
	lea	rdx, QWORD PTR entry$4[rsp]
	mov	rdi, rdx
	lea	rsi, QWORD PTR [rcx+rax]
	mov	ecx, 16
	rep movsb

; 58   : 			for (size_t y = 0; y < 16; ++y)

	mov	QWORD PTR y$2[rsp], 0
	jmp	SHORT $LN13@au_puts
$LN12@au_puts:
	mov	rax, QWORD PTR y$2[rsp]
	inc	rax
	mov	QWORD PTR y$2[rsp], rax
$LN13@au_puts:
	cmp	QWORD PTR y$2[rsp], 16
	jae	$LN11@au_puts

; 59   : 			{
; 60   : 
; 61   : 				for (size_t x = 0; x < 8; ++x)

	mov	QWORD PTR x$3[rsp], 0
	jmp	SHORT $LN10@au_puts
$LN9@au_puts:
	mov	rax, QWORD PTR x$3[rsp]
	inc	rax
	mov	QWORD PTR x$3[rsp], rax
$LN10@au_puts:
	cmp	QWORD PTR x$3[rsp], 8
	jae	$LN8@au_puts

; 62   : 				{
; 63   : 
; 64   : 					if (entry.data[y] & (1 << x))

	mov	rax, QWORD PTR y$2[rsp]
	movzx	eax, BYTE PTR entry$4[rsp+rax]
	mov	rcx, QWORD PTR x$3[rsp]
	mov	edx, 1
	shl	edx, cl
	mov	ecx, edx
	and	eax, ecx
	test	eax, eax
	je	SHORT $LN7@au_puts

; 65   : 					{
; 66   : 						au_draw_pixel(x + xpos * 9, y + ypos * 16, foreground);

	imul	rax, QWORD PTR ?ypos@@3_KA, 16		; ypos
	mov	rcx, QWORD PTR y$2[rsp]
	add	rcx, rax
	mov	rax, rcx
	imul	rcx, QWORD PTR ?xpos@@3_KA, 9		; xpos
	mov	rdx, QWORD PTR x$3[rsp]
	add	rdx, rcx
	mov	rcx, rdx
	mov	r8d, DWORD PTR ?foreground@@3IA		; foreground
	mov	edx, eax
	call	?au_draw_pixel@@YAXIII@Z		; au_draw_pixel

; 67   : 					}
; 68   : 					else {

	jmp	SHORT $LN6@au_puts
$LN7@au_puts:

; 69   : 						au_draw_pixel(x + xpos * 9, y + ypos * 16, background);

	imul	rax, QWORD PTR ?ypos@@3_KA, 16		; ypos
	mov	rcx, QWORD PTR y$2[rsp]
	add	rcx, rax
	mov	rax, rcx
	imul	rcx, QWORD PTR ?xpos@@3_KA, 9		; xpos
	mov	rdx, QWORD PTR x$3[rsp]
	add	rdx, rcx
	mov	rcx, rdx
	mov	r8d, DWORD PTR ?background@@3IA		; background
	mov	edx, eax
	call	?au_draw_pixel@@YAXIII@Z		; au_draw_pixel
$LN6@au_puts:

; 70   : 					}
; 71   : 				}

	jmp	$LN9@au_puts
$LN8@au_puts:

; 72   : 				au_draw_pixel(8 + xpos * 9, y + ypos * 16, background);

	imul	rax, QWORD PTR ?ypos@@3_KA, 16		; ypos
	mov	rcx, QWORD PTR y$2[rsp]
	add	rcx, rax
	mov	rax, rcx
	imul	rcx, QWORD PTR ?xpos@@3_KA, 9		; xpos
	add	rcx, 8
	mov	r8d, DWORD PTR ?background@@3IA		; background
	mov	edx, eax
	call	?au_draw_pixel@@YAXIII@Z		; au_draw_pixel

; 73   : 			}

	jmp	$LN12@au_puts
$LN11@au_puts:

; 74   : 			++xpos;

	mov	rax, QWORD PTR ?xpos@@3_KA		; xpos
	inc	rax
	mov	QWORD PTR ?xpos@@3_KA, rax		; xpos

; 75   : 			if (xpos > h_res / 9)

	xor	edx, edx
	mov	rax, QWORD PTR h_res$[rsp]
	mov	ecx, 9
	div	rcx
	cmp	QWORD PTR ?xpos@@3_KA, rax		; xpos
	jbe	SHORT $LN5@au_puts

; 76   : 			{
; 77   : 				xpos = 0;

	mov	QWORD PTR ?xpos@@3_KA, 0		; xpos

; 78   : 				++ypos;

	mov	rax, QWORD PTR ?ypos@@3_KA		; ypos
	inc	rax
	mov	QWORD PTR ?ypos@@3_KA, rax		; ypos
$LN5@au_puts:
$LN14@au_puts:
$LN17@au_puts:
$LN19@au_puts:
$LN21@au_puts:

; 79   : 			}
; 80   : 		}
; 81   : 
; 82   : 		++str;

	mov	rax, QWORD PTR str$[rsp]
	inc	rax
	mov	QWORD PTR str$[rsp], rax

; 83   : 	}

	jmp	$LN24@au_puts
$LN23@au_puts:

; 84   : 
; 85   : 
; 86   : 	/* Scroll */
; 87   : 
; 88   : 	if (ypos + 1> v_res / 16)

	mov	rax, QWORD PTR ?ypos@@3_KA		; ypos
	inc	rax
	mov	QWORD PTR tv160[rsp], rax
	xor	edx, edx
	mov	rax, QWORD PTR v_res$[rsp]
	mov	ecx, 16
	div	rcx
	mov	rcx, QWORD PTR tv160[rsp]
	cmp	rcx, rax
	jbe	SHORT $LN4@au_puts

; 89   : 	{
; 90   : 		for (int i = 16; i < v_res * h_res; i++)

	mov	DWORD PTR i$1[rsp], 16
	jmp	SHORT $LN3@au_puts
$LN2@au_puts:
	mov	eax, DWORD PTR i$1[rsp]
	inc	eax
	mov	DWORD PTR i$1[rsp], eax
$LN3@au_puts:
	movsxd	rax, DWORD PTR i$1[rsp]
	mov	rcx, QWORD PTR v_res$[rsp]
	imul	rcx, QWORD PTR h_res$[rsp]
	cmp	rax, rcx
	jae	SHORT $LN1@au_puts

; 91   : 			framebuffer[i] = framebuffer[i + h_res*16];

	movsxd	rax, DWORD PTR i$1[rsp]
	imul	rcx, QWORD PTR h_res$[rsp], 16
	add	rax, rcx
	movsxd	rcx, DWORD PTR i$1[rsp]
	mov	rdx, QWORD PTR framebuffer$[rsp]
	mov	rdi, QWORD PTR framebuffer$[rsp]
	mov	eax, DWORD PTR [rdi+rax*4]
	mov	DWORD PTR [rdx+rcx*4], eax
	jmp	SHORT $LN2@au_puts
$LN1@au_puts:

; 92   : 		ypos--;

	mov	rax, QWORD PTR ?ypos@@3_KA		; ypos
	dec	rax
	mov	QWORD PTR ?ypos@@3_KA, rax		; ypos
$LN4@au_puts:

; 93   : 	}
; 94   : }

	add	rsp, 120				; 00000078H
	pop	rdi
	pop	rsi
	ret	0
?au_puts@@YAXPEBD@Z ENDP				; au_puts
_TEXT	ENDS
; Function compile flags: /Odtp
; File e:\aurora kernel\ldr\auldr\graphics.cpp
_TEXT	SEGMENT
fb$ = 32
x$ = 64
y$ = 72
color$ = 80
?au_draw_pixel@@YAXIII@Z PROC				; au_draw_pixel

; 25   : void au_draw_pixel(unsigned int x, unsigned int y, unsigned int color) {

$LN3:
	mov	DWORD PTR [rsp+24], r8d
	mov	DWORD PTR [rsp+16], edx
	mov	DWORD PTR [rsp+8], ecx
	sub	rsp, 56					; 00000038H

; 26   : 	uint32_t *fb = (uint32_t*)aulib_get_fb_address();

	call	?aulib_get_fb_address@@YAPEAIXZ		; aulib_get_fb_address
	mov	QWORD PTR fb$[rsp], rax

; 27   : 	fb[x + y * aulib_get_x_resolution()] = color;

	call	?aulib_get_x_resolution@@YAIXZ		; aulib_get_x_resolution
	mov	ecx, DWORD PTR y$[rsp]
	imul	ecx, eax
	mov	eax, ecx
	mov	ecx, DWORD PTR x$[rsp]
	add	ecx, eax
	mov	eax, ecx
	mov	eax, eax
	mov	rcx, QWORD PTR fb$[rsp]
	mov	edx, DWORD PTR color$[rsp]
	mov	DWORD PTR [rcx+rax*4], edx

; 28   : }

	add	rsp, 56					; 00000038H
	ret	0
?au_draw_pixel@@YAXIII@Z ENDP				; au_draw_pixel
_TEXT	ENDS
END
