; Listing generated by Microsoft (R) Optimizing Compiler Version 18.00.21005.1 

include listing.inc

INCLUDELIB LIBCMT
INCLUDELIB OLDNAMES

CONST	SEGMENT
$SG2798	DB	'***ARCH x86_64 : Exception Occured ***', 0aH, 00H
$SG2800	DB	'[aurora]: please inform it to the master of the kernel', 0aH
	DB	00H
$SG2799	DB	'[aurora]: We are sorry to say that, a processor invalid '
	DB	'exception has occured', 0aH, 00H
	ORG $+1
$SG2801	DB	'[aurora]: Below is the code of exception', 0aH, 00H
	ORG $+6
$SG2808	DB	0aH, 'Divide by 0', 00H
	ORG $+3
$SG2809	DB	'__PROCESSOR_DATA__', 0aH, 00H
	ORG $+4
$SG2810	DB	'RIP -> %x', 0aH, 00H
	ORG $+5
$SG2811	DB	'RSP -> %x', 0aH, 00H
	ORG $+5
$SG2812	DB	'RFLAGS -> %x', 0aH, 00H
	ORG $+2
$SG2822	DB	0aH, 'Single Step Trap', 00H
	ORG $+6
$SG2830	DB	0aH, 'NMI [Non-Muskable-Interrupt] Trap', 00H
	ORG $+5
$SG2838	DB	0aH, 'Breakpoint Trap', 00H
	ORG $+7
$SG2846	DB	0aH, 'Overflow Trap', 00H
	ORG $+1
$SG2854	DB	0aH, 'Bound Check Fault', 00H
	ORG $+5
$SG2864	DB	'Invalid Opcode Fault', 0aH, 00H
	ORG $+2
$SG2865	DB	'__PROCESSOR TRACE__', 0aH, 00H
	ORG $+3
$SG2866	DB	'RIP -> %x', 0aH, 00H
	ORG $+5
$SG2867	DB	'Stack -> %x', 0aH, 00H
	ORG $+3
$SG2868	DB	'RFLAGS -> %x', 0aH, 00H
	ORG $+2
$SG2869	DB	'CS -> %x', 0aH, 00H
	ORG $+6
$SG2870	DB	'SS -> %x', 0aH, 00H
	ORG $+6
$SG2878	DB	0aH, 'No Device Fault', 00H
	ORG $+7
$SG2886	DB	0aH, 'Double Fault Abort', 00H
	ORG $+4
$SG2894	DB	0aH, 'Invalid TSS Fault ', 00H
	ORG $+4
$SG2902	DB	0aH, 'No Segment Fault', 00H
	ORG $+6
$SG2910	DB	0aH, 'Stack Fault at ', 00H
	ORG $+7
$SG2920	DB	'Genral Protection Fault', 0aH, 00H
	ORG $+7
$SG2921	DB	'__PROCESSOR TRACE__', 0aH, 00H
	ORG $+3
$SG2922	DB	'RIP -> %x', 0aH, 00H
	ORG $+5
$SG2923	DB	'Stack -> %x', 0aH, 00H
	ORG $+3
$SG2924	DB	'RFLAGS -> %x', 0aH, 00H
	ORG $+2
$SG2925	DB	'CS -> %x, SS -> %x', 0aH, 00H
	ORG $+4
$SG2942	DB	'[aurora]: page fault -> %x', 0aH, 00H
	ORG $+4
$SG2944	DB	'bit: present ', 0aH, 00H
	ORG $+1
$SG2947	DB	'bit: rw ', 0aH, 00H
	ORG $+6
$SG2950	DB	'bit: us ', 0aH, 00H
	ORG $+6
$SG2953	DB	'bit: resv ', 0aH, 00H
	ORG $+4
$SG2956	DB	'bit: id', 0aH, 00H
	ORG $+7
$SG2964	DB	0aH, 'FPU Fault', 00H
	ORG $+5
$SG2972	DB	0aH, 'Alignment Check Fault at address ', 00H
	ORG $+5
$SG2980	DB	0aH, 'Machine Check Abort', 00H
	ORG $+3
$SG2988	DB	0aH, 'SIMD FPU Fault', 00H
CONST	ENDS
PUBLIC	?x86_64_exception_init@@YAXXZ			; x86_64_exception_init
PUBLIC	?panic@@YAXPEBDZZ				; panic
PUBLIC	?divide_by_zero_fault@@YAX_KPEAX@Z		; divide_by_zero_fault
PUBLIC	?single_step_trap@@YAX_KPEAX@Z			; single_step_trap
PUBLIC	?nmi_trap@@YAX_KPEAX@Z				; nmi_trap
PUBLIC	?breakpoint_trap@@YAX_KPEAX@Z			; breakpoint_trap
PUBLIC	?overflow_trap@@YAX_KPEAX@Z			; overflow_trap
PUBLIC	?bounds_check_fault@@YAX_KPEAX@Z		; bounds_check_fault
PUBLIC	?invalid_opcode_fault@@YAX_KPEAX@Z		; invalid_opcode_fault
PUBLIC	?no_device_fault@@YAX_KPEAX@Z			; no_device_fault
PUBLIC	?double_fault_abort@@YAX_KPEAX@Z		; double_fault_abort
PUBLIC	?invalid_tss_fault@@YAX_KPEAX@Z			; invalid_tss_fault
PUBLIC	?no_segment_fault@@YAX_KPEAX@Z			; no_segment_fault
PUBLIC	?stack_fault@@YAX_KPEAX@Z			; stack_fault
PUBLIC	?general_protection_fault@@YAX_KPEAX@Z		; general_protection_fault
PUBLIC	?page_fault@@YAX_KPEAX@Z			; page_fault
PUBLIC	?fpu_fault@@YAX_KPEAX@Z				; fpu_fault
PUBLIC	?alignment_check_fault@@YAX_KPEAX@Z		; alignment_check_fault
PUBLIC	?machine_check_abort@@YAX_KPEAX@Z		; machine_check_abort
PUBLIC	?simd_fpu_fault@@YAX_KPEAX@Z			; simd_fpu_fault
EXTRN	?printf@@YAXPEBDZZ:PROC				; printf
EXTRN	?setvect@@YAX_KP6AX0PEAX@Z@Z:PROC		; setvect
EXTRN	x64_cli:PROC
EXTRN	x64_read_cr2:PROC
pdata	SEGMENT
$pdata$?x86_64_exception_init@@YAXXZ DD imagerel $LN3
	DD	imagerel $LN3+312
	DD	imagerel $unwind$?x86_64_exception_init@@YAXXZ
$pdata$?panic@@YAXPEBDZZ DD imagerel $LN3
	DD	imagerel $LN3+87
	DD	imagerel $unwind$?panic@@YAXPEBDZZ
$pdata$?divide_by_zero_fault@@YAX_KPEAX@Z DD imagerel $LN5
	DD	imagerel $LN5+123
	DD	imagerel $unwind$?divide_by_zero_fault@@YAX_KPEAX@Z
$pdata$?single_step_trap@@YAX_KPEAX@Z DD imagerel $LN5
	DD	imagerel $LN5+48
	DD	imagerel $unwind$?single_step_trap@@YAX_KPEAX@Z
$pdata$?nmi_trap@@YAX_KPEAX@Z DD imagerel $LN5
	DD	imagerel $LN5+38
	DD	imagerel $unwind$?nmi_trap@@YAX_KPEAX@Z
$pdata$?breakpoint_trap@@YAX_KPEAX@Z DD imagerel $LN5
	DD	imagerel $LN5+38
	DD	imagerel $unwind$?breakpoint_trap@@YAX_KPEAX@Z
$pdata$?overflow_trap@@YAX_KPEAX@Z DD imagerel $LN5
	DD	imagerel $LN5+38
	DD	imagerel $unwind$?overflow_trap@@YAX_KPEAX@Z
$pdata$?bounds_check_fault@@YAX_KPEAX@Z DD imagerel $LN5
	DD	imagerel $LN5+38
	DD	imagerel $unwind$?bounds_check_fault@@YAX_KPEAX@Z
$pdata$?invalid_opcode_fault@@YAX_KPEAX@Z DD imagerel $LN5
	DD	imagerel $LN5+165
	DD	imagerel $unwind$?invalid_opcode_fault@@YAX_KPEAX@Z
$pdata$?no_device_fault@@YAX_KPEAX@Z DD imagerel $LN5
	DD	imagerel $LN5+38
	DD	imagerel $unwind$?no_device_fault@@YAX_KPEAX@Z
$pdata$?double_fault_abort@@YAX_KPEAX@Z DD imagerel $LN5
	DD	imagerel $LN5+38
	DD	imagerel $unwind$?double_fault_abort@@YAX_KPEAX@Z
$pdata$?invalid_tss_fault@@YAX_KPEAX@Z DD imagerel $LN5
	DD	imagerel $LN5+38
	DD	imagerel $unwind$?invalid_tss_fault@@YAX_KPEAX@Z
$pdata$?no_segment_fault@@YAX_KPEAX@Z DD imagerel $LN5
	DD	imagerel $LN5+38
	DD	imagerel $unwind$?no_segment_fault@@YAX_KPEAX@Z
$pdata$?stack_fault@@YAX_KPEAX@Z DD imagerel $LN5
	DD	imagerel $LN5+38
	DD	imagerel $unwind$?stack_fault@@YAX_KPEAX@Z
$pdata$?general_protection_fault@@YAX_KPEAX@Z DD imagerel $LN5
	DD	imagerel $LN5+153
	DD	imagerel $unwind$?general_protection_fault@@YAX_KPEAX@Z
$pdata$?page_fault@@YAX_KPEAX@Z DD imagerel $LN16
	DD	imagerel $LN16+273
	DD	imagerel $unwind$?page_fault@@YAX_KPEAX@Z
$pdata$?fpu_fault@@YAX_KPEAX@Z DD imagerel $LN5
	DD	imagerel $LN5+38
	DD	imagerel $unwind$?fpu_fault@@YAX_KPEAX@Z
$pdata$?alignment_check_fault@@YAX_KPEAX@Z DD imagerel $LN5
	DD	imagerel $LN5+38
	DD	imagerel $unwind$?alignment_check_fault@@YAX_KPEAX@Z
$pdata$?machine_check_abort@@YAX_KPEAX@Z DD imagerel $LN5
	DD	imagerel $LN5+38
	DD	imagerel $unwind$?machine_check_abort@@YAX_KPEAX@Z
$pdata$?simd_fpu_fault@@YAX_KPEAX@Z DD imagerel $LN5
	DD	imagerel $LN5+38
	DD	imagerel $unwind$?simd_fpu_fault@@YAX_KPEAX@Z
pdata	ENDS
xdata	SEGMENT
$unwind$?x86_64_exception_init@@YAXXZ DD 010401H
	DD	04204H
$unwind$?panic@@YAXPEBDZZ DD 011801H
	DD	04218H
$unwind$?divide_by_zero_fault@@YAX_KPEAX@Z DD 010e01H
	DD	0620eH
$unwind$?single_step_trap@@YAX_KPEAX@Z DD 010e01H
	DD	0620eH
$unwind$?nmi_trap@@YAX_KPEAX@Z DD 010e01H
	DD	0420eH
$unwind$?breakpoint_trap@@YAX_KPEAX@Z DD 010e01H
	DD	0420eH
$unwind$?overflow_trap@@YAX_KPEAX@Z DD 010e01H
	DD	0420eH
$unwind$?bounds_check_fault@@YAX_KPEAX@Z DD 010e01H
	DD	0420eH
$unwind$?invalid_opcode_fault@@YAX_KPEAX@Z DD 010e01H
	DD	0620eH
$unwind$?no_device_fault@@YAX_KPEAX@Z DD 010e01H
	DD	0420eH
$unwind$?double_fault_abort@@YAX_KPEAX@Z DD 010e01H
	DD	0420eH
$unwind$?invalid_tss_fault@@YAX_KPEAX@Z DD 010e01H
	DD	0420eH
$unwind$?no_segment_fault@@YAX_KPEAX@Z DD 010e01H
	DD	0420eH
$unwind$?stack_fault@@YAX_KPEAX@Z DD 010e01H
	DD	0420eH
$unwind$?general_protection_fault@@YAX_KPEAX@Z DD 010e01H
	DD	0620eH
$unwind$?page_fault@@YAX_KPEAX@Z DD 010e01H
	DD	0a20eH
$unwind$?fpu_fault@@YAX_KPEAX@Z DD 010e01H
	DD	0420eH
$unwind$?alignment_check_fault@@YAX_KPEAX@Z DD 010e01H
	DD	0420eH
$unwind$?machine_check_abort@@YAX_KPEAX@Z DD 010e01H
	DD	0420eH
$unwind$?simd_fpu_fault@@YAX_KPEAX@Z DD 010e01H
	DD	0420eH
xdata	ENDS
; Function compile flags: /Odtpy
; File e:\aurora kernel\kernel\arch\x86_64\x86_64_exception.cpp
_TEXT	SEGMENT
v$ = 48
p$ = 56
?simd_fpu_fault@@YAX_KPEAX@Z PROC			; simd_fpu_fault

; 205  : void simd_fpu_fault(size_t v, void* p){

$LN5:
	mov	QWORD PTR [rsp+16], rdx
	mov	QWORD PTR [rsp+8], rcx
	sub	rsp, 40					; 00000028H

; 206  : 	x64_cli();

	call	x64_cli

; 207  : 	panic("\nSIMD FPU Fault");

	lea	rcx, OFFSET FLAT:$SG2988
	call	?panic@@YAXPEBDZZ			; panic
$LN2@simd_fpu_f:

; 208  : 	for (;;);

	jmp	SHORT $LN2@simd_fpu_f

; 209  : }

	add	rsp, 40					; 00000028H
	ret	0
?simd_fpu_fault@@YAX_KPEAX@Z ENDP			; simd_fpu_fault
_TEXT	ENDS
; Function compile flags: /Odtpy
; File e:\aurora kernel\kernel\arch\x86_64\x86_64_exception.cpp
_TEXT	SEGMENT
v$ = 48
p$ = 56
?machine_check_abort@@YAX_KPEAX@Z PROC			; machine_check_abort

; 198  : void machine_check_abort(size_t v, void* p){

$LN5:
	mov	QWORD PTR [rsp+16], rdx
	mov	QWORD PTR [rsp+8], rcx
	sub	rsp, 40					; 00000028H

; 199  : 	x64_cli();

	call	x64_cli

; 200  : 	panic("\nMachine Check Abort");

	lea	rcx, OFFSET FLAT:$SG2980
	call	?panic@@YAXPEBDZZ			; panic
$LN2@machine_ch:

; 201  : 	for (;;);

	jmp	SHORT $LN2@machine_ch

; 202  : }

	add	rsp, 40					; 00000028H
	ret	0
?machine_check_abort@@YAX_KPEAX@Z ENDP			; machine_check_abort
_TEXT	ENDS
; Function compile flags: /Odtpy
; File e:\aurora kernel\kernel\arch\x86_64\x86_64_exception.cpp
_TEXT	SEGMENT
v$ = 48
p$ = 56
?alignment_check_fault@@YAX_KPEAX@Z PROC		; alignment_check_fault

; 191  : void alignment_check_fault(size_t v, void* p){

$LN5:
	mov	QWORD PTR [rsp+16], rdx
	mov	QWORD PTR [rsp+8], rcx
	sub	rsp, 40					; 00000028H

; 192  : 	x64_cli();

	call	x64_cli

; 193  : 	panic("\nAlignment Check Fault at address ");

	lea	rcx, OFFSET FLAT:$SG2972
	call	?panic@@YAXPEBDZZ			; panic
$LN2@alignment_:

; 194  : 	for (;;);

	jmp	SHORT $LN2@alignment_

; 195  : }

	add	rsp, 40					; 00000028H
	ret	0
?alignment_check_fault@@YAX_KPEAX@Z ENDP		; alignment_check_fault
_TEXT	ENDS
; Function compile flags: /Odtpy
; File e:\aurora kernel\kernel\arch\x86_64\x86_64_exception.cpp
_TEXT	SEGMENT
vector$ = 48
p$ = 56
?fpu_fault@@YAX_KPEAX@Z PROC				; fpu_fault

; 183  : void fpu_fault(size_t vector, void* p){

$LN5:
	mov	QWORD PTR [rsp+16], rdx
	mov	QWORD PTR [rsp+8], rcx
	sub	rsp, 40					; 00000028H

; 184  : 	x64_cli();

	call	x64_cli

; 185  : 	panic("\nFPU Fault");

	lea	rcx, OFFSET FLAT:$SG2964
	call	?panic@@YAXPEBDZZ			; panic
$LN2@fpu_fault:

; 186  : 	for (;;);

	jmp	SHORT $LN2@fpu_fault

; 187  : }

	add	rsp, 40					; 00000028H
	ret	0
?fpu_fault@@YAX_KPEAX@Z ENDP				; fpu_fault
_TEXT	ENDS
; Function compile flags: /Odtpy
; File e:\aurora kernel\kernel\arch\x86_64\x86_64_exception.cpp
_TEXT	SEGMENT
tv68 = 32
present$ = 36
rw$ = 40
us$ = 44
resv$ = 48
id$ = 52
frame$ = 56
vaddr$ = 64
vector$ = 96
param$ = 104
?page_fault@@YAX_KPEAX@Z PROC				; page_fault

; 156  : void page_fault(size_t vector, void* param){

$LN16:
	mov	QWORD PTR [rsp+16], rdx
	mov	QWORD PTR [rsp+8], rcx
	sub	rsp, 88					; 00000058H

; 157  : 	interrupt_stack_frame *frame = (interrupt_stack_frame*)param;

	mov	rax, QWORD PTR param$[rsp]
	mov	QWORD PTR frame$[rsp], rax

; 158  : 	void* vaddr = (void*)x64_read_cr2();

	call	x64_read_cr2
	mov	QWORD PTR vaddr$[rsp], rax

; 159  : 
; 160  : 	int present = !(frame->error & 0x1);

	mov	rax, QWORD PTR frame$[rsp]
	mov	rax, QWORD PTR [rax+8]
	and	rax, 1
	test	rax, rax
	jne	SHORT $LN14@page_fault
	mov	DWORD PTR tv68[rsp], 1
	jmp	SHORT $LN15@page_fault
$LN14@page_fault:
	mov	DWORD PTR tv68[rsp], 0
$LN15@page_fault:
	mov	eax, DWORD PTR tv68[rsp]
	mov	DWORD PTR present$[rsp], eax

; 161  : 	int rw = frame->error & 0x2;

	mov	rax, QWORD PTR frame$[rsp]
	mov	rax, QWORD PTR [rax+8]
	and	rax, 2
	mov	DWORD PTR rw$[rsp], eax

; 162  : 	int us = frame->error & 0x4;

	mov	rax, QWORD PTR frame$[rsp]
	mov	rax, QWORD PTR [rax+8]
	and	rax, 4
	mov	DWORD PTR us$[rsp], eax

; 163  : 	int resv = frame->error & 0x8;

	mov	rax, QWORD PTR frame$[rsp]
	mov	rax, QWORD PTR [rax+8]
	and	rax, 8
	mov	DWORD PTR resv$[rsp], eax

; 164  : 	int id = frame->error & 0x10;

	mov	rax, QWORD PTR frame$[rsp]
	mov	rax, QWORD PTR [rax+8]
	and	rax, 16
	mov	DWORD PTR id$[rsp], eax

; 165  : 
; 166  : 	panic("[aurora]: page fault -> %x\n", vaddr);

	mov	rdx, QWORD PTR vaddr$[rsp]
	lea	rcx, OFFSET FLAT:$SG2942
	call	?panic@@YAXPEBDZZ			; panic

; 167  : 	if (present)

	cmp	DWORD PTR present$[rsp], 0
	je	SHORT $LN11@page_fault

; 168  : 		printf("bit: present \n");

	lea	rcx, OFFSET FLAT:$SG2944
	call	?printf@@YAXPEBDZZ			; printf
	jmp	SHORT $LN10@page_fault
$LN11@page_fault:

; 169  : 	else if (rw)

	cmp	DWORD PTR rw$[rsp], 0
	je	SHORT $LN9@page_fault

; 170  : 		printf("bit: rw \n");

	lea	rcx, OFFSET FLAT:$SG2947
	call	?printf@@YAXPEBDZZ			; printf
	jmp	SHORT $LN8@page_fault
$LN9@page_fault:

; 171  : 	else if (us)

	cmp	DWORD PTR us$[rsp], 0
	je	SHORT $LN7@page_fault

; 172  : 		printf("bit: us \n");

	lea	rcx, OFFSET FLAT:$SG2950
	call	?printf@@YAXPEBDZZ			; printf
	jmp	SHORT $LN6@page_fault
$LN7@page_fault:

; 173  : 	else if (resv)

	cmp	DWORD PTR resv$[rsp], 0
	je	SHORT $LN5@page_fault

; 174  : 		printf("bit: resv \n");

	lea	rcx, OFFSET FLAT:$SG2953
	call	?printf@@YAXPEBDZZ			; printf
	jmp	SHORT $LN4@page_fault
$LN5@page_fault:

; 175  : 	else if (id)

	cmp	DWORD PTR id$[rsp], 0
	je	SHORT $LN3@page_fault

; 176  : 		printf("bit: id\n");

	lea	rcx, OFFSET FLAT:$SG2956
	call	?printf@@YAXPEBDZZ			; printf
$LN3@page_fault:
$LN4@page_fault:
$LN6@page_fault:
$LN8@page_fault:
$LN10@page_fault:
$LN2@page_fault:

; 177  : 
; 178  : 	for (;;);

	jmp	SHORT $LN2@page_fault

; 179  : }

	add	rsp, 88					; 00000058H
	ret	0
?page_fault@@YAX_KPEAX@Z ENDP				; page_fault
_TEXT	ENDS
; Function compile flags: /Odtpy
; File e:\aurora kernel\kernel\arch\x86_64\x86_64_exception.cpp
_TEXT	SEGMENT
frame$ = 32
v$ = 64
p$ = 72
?general_protection_fault@@YAX_KPEAX@Z PROC		; general_protection_fault

; 141  : void general_protection_fault(size_t v, void* p){

$LN5:
	mov	QWORD PTR [rsp+16], rdx
	mov	QWORD PTR [rsp+8], rcx
	sub	rsp, 56					; 00000038H

; 142  : 	x64_cli();

	call	x64_cli

; 143  : 	interrupt_stack_frame *frame = (interrupt_stack_frame*)p;

	mov	rax, QWORD PTR p$[rsp]
	mov	QWORD PTR frame$[rsp], rax

; 144  : 	panic ("Genral Protection Fault\n");

	lea	rcx, OFFSET FLAT:$SG2920
	call	?panic@@YAXPEBDZZ			; panic

; 145  : 	printf ("__PROCESSOR TRACE__\n");

	lea	rcx, OFFSET FLAT:$SG2921
	call	?printf@@YAXPEBDZZ			; printf

; 146  : 	printf ("RIP -> %x\n",frame->rip);

	mov	rax, QWORD PTR frame$[rsp]
	mov	rdx, QWORD PTR [rax+16]
	lea	rcx, OFFSET FLAT:$SG2922
	call	?printf@@YAXPEBDZZ			; printf

; 147  : 	printf ("Stack -> %x\n", frame->rsp);

	mov	rax, QWORD PTR frame$[rsp]
	mov	rdx, QWORD PTR [rax+40]
	lea	rcx, OFFSET FLAT:$SG2923
	call	?printf@@YAXPEBDZZ			; printf

; 148  : 	printf ("RFLAGS -> %x\n", frame->rflags);

	mov	rax, QWORD PTR frame$[rsp]
	mov	rdx, QWORD PTR [rax+32]
	lea	rcx, OFFSET FLAT:$SG2924
	call	?printf@@YAXPEBDZZ			; printf

; 149  : 	printf ("CS -> %x, SS -> %x\n", frame->cs, frame->ss);

	mov	rax, QWORD PTR frame$[rsp]
	mov	r8, QWORD PTR [rax+48]
	mov	rax, QWORD PTR frame$[rsp]
	mov	rdx, QWORD PTR [rax+24]
	lea	rcx, OFFSET FLAT:$SG2925
	call	?printf@@YAXPEBDZZ			; printf
$LN2@general_pr:

; 150  : 	for(;;);

	jmp	SHORT $LN2@general_pr

; 151  : }

	add	rsp, 56					; 00000038H
	ret	0
?general_protection_fault@@YAX_KPEAX@Z ENDP		; general_protection_fault
_TEXT	ENDS
; Function compile flags: /Odtpy
; File e:\aurora kernel\kernel\arch\x86_64\x86_64_exception.cpp
_TEXT	SEGMENT
v$ = 48
p$ = 56
?stack_fault@@YAX_KPEAX@Z PROC				; stack_fault

; 133  : void stack_fault(size_t v, void* p){

$LN5:
	mov	QWORD PTR [rsp+16], rdx
	mov	QWORD PTR [rsp+8], rcx
	sub	rsp, 40					; 00000028H

; 134  : 	x64_cli();

	call	x64_cli

; 135  : 	panic("\nStack Fault at ");

	lea	rcx, OFFSET FLAT:$SG2910
	call	?panic@@YAXPEBDZZ			; panic
$LN2@stack_faul:

; 136  : 	for (;;);

	jmp	SHORT $LN2@stack_faul

; 137  : }

	add	rsp, 40					; 00000028H
	ret	0
?stack_fault@@YAX_KPEAX@Z ENDP				; stack_fault
_TEXT	ENDS
; Function compile flags: /Odtpy
; File e:\aurora kernel\kernel\arch\x86_64\x86_64_exception.cpp
_TEXT	SEGMENT
v$ = 48
p$ = 56
?no_segment_fault@@YAX_KPEAX@Z PROC			; no_segment_fault

; 126  : void no_segment_fault(size_t v, void* p){

$LN5:
	mov	QWORD PTR [rsp+16], rdx
	mov	QWORD PTR [rsp+8], rcx
	sub	rsp, 40					; 00000028H

; 127  : 	x64_cli();

	call	x64_cli

; 128  : 	panic("\nNo Segment Fault");

	lea	rcx, OFFSET FLAT:$SG2902
	call	?panic@@YAXPEBDZZ			; panic
$LN2@no_segment:

; 129  : 	for (;;);

	jmp	SHORT $LN2@no_segment

; 130  : }

	add	rsp, 40					; 00000028H
	ret	0
?no_segment_fault@@YAX_KPEAX@Z ENDP			; no_segment_fault
_TEXT	ENDS
; Function compile flags: /Odtpy
; File e:\aurora kernel\kernel\arch\x86_64\x86_64_exception.cpp
_TEXT	SEGMENT
v$ = 48
p$ = 56
?invalid_tss_fault@@YAX_KPEAX@Z PROC			; invalid_tss_fault

; 119  : void invalid_tss_fault(size_t v, void* p){

$LN5:
	mov	QWORD PTR [rsp+16], rdx
	mov	QWORD PTR [rsp+8], rcx
	sub	rsp, 40					; 00000028H

; 120  : 	x64_cli();

	call	x64_cli

; 121  : 	panic("\nInvalid TSS Fault ");

	lea	rcx, OFFSET FLAT:$SG2894
	call	?panic@@YAXPEBDZZ			; panic
$LN2@invalid_ts:

; 122  : 	for (;;);

	jmp	SHORT $LN2@invalid_ts

; 123  : }

	add	rsp, 40					; 00000028H
	ret	0
?invalid_tss_fault@@YAX_KPEAX@Z ENDP			; invalid_tss_fault
_TEXT	ENDS
; Function compile flags: /Odtpy
; File e:\aurora kernel\kernel\arch\x86_64\x86_64_exception.cpp
_TEXT	SEGMENT
v$ = 48
p$ = 56
?double_fault_abort@@YAX_KPEAX@Z PROC			; double_fault_abort

; 112  : void double_fault_abort(size_t v, void* p){

$LN5:
	mov	QWORD PTR [rsp+16], rdx
	mov	QWORD PTR [rsp+8], rcx
	sub	rsp, 40					; 00000028H

; 113  : 	x64_cli();

	call	x64_cli

; 114  : 	panic("\nDouble Fault Abort");

	lea	rcx, OFFSET FLAT:$SG2886
	call	?panic@@YAXPEBDZZ			; panic
$LN2@double_fau:

; 115  : 	for (;;);

	jmp	SHORT $LN2@double_fau

; 116  : }

	add	rsp, 40					; 00000028H
	ret	0
?double_fault_abort@@YAX_KPEAX@Z ENDP			; double_fault_abort
_TEXT	ENDS
; Function compile flags: /Odtpy
; File e:\aurora kernel\kernel\arch\x86_64\x86_64_exception.cpp
_TEXT	SEGMENT
v$ = 48
p$ = 56
?no_device_fault@@YAX_KPEAX@Z PROC			; no_device_fault

; 105  : void no_device_fault(size_t v, void* p){

$LN5:
	mov	QWORD PTR [rsp+16], rdx
	mov	QWORD PTR [rsp+8], rcx
	sub	rsp, 40					; 00000028H

; 106  : 	x64_cli();

	call	x64_cli

; 107  : 	panic("\nNo Device Fault");

	lea	rcx, OFFSET FLAT:$SG2878
	call	?panic@@YAXPEBDZZ			; panic
$LN2@no_device_:

; 108  : 	for (;;);

	jmp	SHORT $LN2@no_device_

; 109  : }

	add	rsp, 40					; 00000028H
	ret	0
?no_device_fault@@YAX_KPEAX@Z ENDP			; no_device_fault
_TEXT	ENDS
; Function compile flags: /Odtpy
; File e:\aurora kernel\kernel\arch\x86_64\x86_64_exception.cpp
_TEXT	SEGMENT
frame$ = 32
v$ = 64
p$ = 72
?invalid_opcode_fault@@YAX_KPEAX@Z PROC			; invalid_opcode_fault

; 91   : void invalid_opcode_fault(size_t v, void* p){

$LN5:
	mov	QWORD PTR [rsp+16], rdx
	mov	QWORD PTR [rsp+8], rcx
	sub	rsp, 56					; 00000038H

; 92   : 	x64_cli();

	call	x64_cli

; 93   : 	interrupt_stack_frame *frame = (interrupt_stack_frame*)p;

	mov	rax, QWORD PTR p$[rsp]
	mov	QWORD PTR frame$[rsp], rax

; 94   : 	panic("Invalid Opcode Fault\n");

	lea	rcx, OFFSET FLAT:$SG2864
	call	?panic@@YAXPEBDZZ			; panic

; 95   : 	printf("__PROCESSOR TRACE__\n");

	lea	rcx, OFFSET FLAT:$SG2865
	call	?printf@@YAXPEBDZZ			; printf

; 96   : 	printf("RIP -> %x\n", frame->rip);

	mov	rax, QWORD PTR frame$[rsp]
	mov	rdx, QWORD PTR [rax+16]
	lea	rcx, OFFSET FLAT:$SG2866
	call	?printf@@YAXPEBDZZ			; printf

; 97   : 	printf("Stack -> %x\n", frame->rsp);

	mov	rax, QWORD PTR frame$[rsp]
	mov	rdx, QWORD PTR [rax+40]
	lea	rcx, OFFSET FLAT:$SG2867
	call	?printf@@YAXPEBDZZ			; printf

; 98   : 	printf("RFLAGS -> %x\n", frame->rflags);

	mov	rax, QWORD PTR frame$[rsp]
	mov	rdx, QWORD PTR [rax+32]
	lea	rcx, OFFSET FLAT:$SG2868
	call	?printf@@YAXPEBDZZ			; printf

; 99   : 	printf("CS -> %x\n", frame->cs);

	mov	rax, QWORD PTR frame$[rsp]
	mov	rdx, QWORD PTR [rax+24]
	lea	rcx, OFFSET FLAT:$SG2869
	call	?printf@@YAXPEBDZZ			; printf

; 100  : 	printf("SS -> %x\n", frame->ss);

	mov	rax, QWORD PTR frame$[rsp]
	mov	rdx, QWORD PTR [rax+48]
	lea	rcx, OFFSET FLAT:$SG2870
	call	?printf@@YAXPEBDZZ			; printf
$LN2@invalid_op:

; 101  : 	for (;;);

	jmp	SHORT $LN2@invalid_op

; 102  : }

	add	rsp, 56					; 00000038H
	ret	0
?invalid_opcode_fault@@YAX_KPEAX@Z ENDP			; invalid_opcode_fault
_TEXT	ENDS
; Function compile flags: /Odtpy
; File e:\aurora kernel\kernel\arch\x86_64\x86_64_exception.cpp
_TEXT	SEGMENT
v$ = 48
p$ = 56
?bounds_check_fault@@YAX_KPEAX@Z PROC			; bounds_check_fault

; 84   : void bounds_check_fault(size_t v, void* p){

$LN5:
	mov	QWORD PTR [rsp+16], rdx
	mov	QWORD PTR [rsp+8], rcx
	sub	rsp, 40					; 00000028H

; 85   : 	x64_cli();

	call	x64_cli

; 86   : 	panic("\nBound Check Fault");

	lea	rcx, OFFSET FLAT:$SG2854
	call	?panic@@YAXPEBDZZ			; panic
$LN2@bounds_che:

; 87   : 	for (;;);

	jmp	SHORT $LN2@bounds_che

; 88   : }

	add	rsp, 40					; 00000028H
	ret	0
?bounds_check_fault@@YAX_KPEAX@Z ENDP			; bounds_check_fault
_TEXT	ENDS
; Function compile flags: /Odtpy
; File e:\aurora kernel\kernel\arch\x86_64\x86_64_exception.cpp
_TEXT	SEGMENT
v$ = 48
p$ = 56
?overflow_trap@@YAX_KPEAX@Z PROC			; overflow_trap

; 77   : void overflow_trap(size_t v, void* p){

$LN5:
	mov	QWORD PTR [rsp+16], rdx
	mov	QWORD PTR [rsp+8], rcx
	sub	rsp, 40					; 00000028H

; 78   : 	x64_cli();

	call	x64_cli

; 79   : 	panic("\nOverflow Trap");

	lea	rcx, OFFSET FLAT:$SG2846
	call	?panic@@YAXPEBDZZ			; panic
$LN2@overflow_t:

; 80   : 	for (;;);

	jmp	SHORT $LN2@overflow_t

; 81   : }

	add	rsp, 40					; 00000028H
	ret	0
?overflow_trap@@YAX_KPEAX@Z ENDP			; overflow_trap
_TEXT	ENDS
; Function compile flags: /Odtpy
; File e:\aurora kernel\kernel\arch\x86_64\x86_64_exception.cpp
_TEXT	SEGMENT
vector$ = 48
param$ = 56
?breakpoint_trap@@YAX_KPEAX@Z PROC			; breakpoint_trap

; 70   : void breakpoint_trap(size_t vector, void* param){

$LN5:
	mov	QWORD PTR [rsp+16], rdx
	mov	QWORD PTR [rsp+8], rcx
	sub	rsp, 40					; 00000028H

; 71   : 	x64_cli();

	call	x64_cli

; 72   : 	panic("\nBreakpoint Trap");

	lea	rcx, OFFSET FLAT:$SG2838
	call	?panic@@YAXPEBDZZ			; panic
$LN2@breakpoint:

; 73   : 	for (;;);

	jmp	SHORT $LN2@breakpoint

; 74   : }

	add	rsp, 40					; 00000028H
	ret	0
?breakpoint_trap@@YAX_KPEAX@Z ENDP			; breakpoint_trap
_TEXT	ENDS
; Function compile flags: /Odtpy
; File e:\aurora kernel\kernel\arch\x86_64\x86_64_exception.cpp
_TEXT	SEGMENT
vector$ = 48
param$ = 56
?nmi_trap@@YAX_KPEAX@Z PROC				; nmi_trap

; 62   : void nmi_trap(size_t vector, void* param){

$LN5:
	mov	QWORD PTR [rsp+16], rdx
	mov	QWORD PTR [rsp+8], rcx
	sub	rsp, 40					; 00000028H

; 63   : 	x64_cli();

	call	x64_cli

; 64   : 	panic("\nNMI [Non-Muskable-Interrupt] Trap");

	lea	rcx, OFFSET FLAT:$SG2830
	call	?panic@@YAXPEBDZZ			; panic
$LN2@nmi_trap:

; 65   : 	for (;;);

	jmp	SHORT $LN2@nmi_trap

; 66   : 
; 67   : }

	add	rsp, 40					; 00000028H
	ret	0
?nmi_trap@@YAX_KPEAX@Z ENDP				; nmi_trap
_TEXT	ENDS
; Function compile flags: /Odtpy
; File e:\aurora kernel\kernel\arch\x86_64\x86_64_exception.cpp
_TEXT	SEGMENT
frame$ = 32
vector$ = 64
param$ = 72
?single_step_trap@@YAX_KPEAX@Z PROC			; single_step_trap

; 55   : void single_step_trap(size_t vector, void* param) {

$LN5:
	mov	QWORD PTR [rsp+16], rdx
	mov	QWORD PTR [rsp+8], rcx
	sub	rsp, 56					; 00000038H

; 56   : 	x64_cli();

	call	x64_cli

; 57   : 	interrupt_stack_frame *frame = (interrupt_stack_frame*)param;

	mov	rax, QWORD PTR param$[rsp]
	mov	QWORD PTR frame$[rsp], rax

; 58   : 	panic("\nSingle Step Trap");

	lea	rcx, OFFSET FLAT:$SG2822
	call	?panic@@YAXPEBDZZ			; panic
$LN2@single_ste:

; 59   : 	for (;;);

	jmp	SHORT $LN2@single_ste

; 60   : }

	add	rsp, 56					; 00000038H
	ret	0
?single_step_trap@@YAX_KPEAX@Z ENDP			; single_step_trap
_TEXT	ENDS
; Function compile flags: /Odtpy
; File e:\aurora kernel\kernel\arch\x86_64\x86_64_exception.cpp
_TEXT	SEGMENT
frame$ = 32
vector$ = 64
param$ = 72
?divide_by_zero_fault@@YAX_KPEAX@Z PROC			; divide_by_zero_fault

; 42   : void divide_by_zero_fault(size_t vector, void* param) {

$LN5:
	mov	QWORD PTR [rsp+16], rdx
	mov	QWORD PTR [rsp+8], rcx
	sub	rsp, 56					; 00000038H

; 43   : 	x64_cli();

	call	x64_cli

; 44   : 	interrupt_stack_frame *frame = (interrupt_stack_frame*)param;

	mov	rax, QWORD PTR param$[rsp]
	mov	QWORD PTR frame$[rsp], rax

; 45   : 	panic("\nDivide by 0");

	lea	rcx, OFFSET FLAT:$SG2808
	call	?panic@@YAXPEBDZZ			; panic

; 46   : 
; 47   : 	printf("__PROCESSOR_DATA__\n");

	lea	rcx, OFFSET FLAT:$SG2809
	call	?printf@@YAXPEBDZZ			; printf

; 48   : 	printf("RIP -> %x\n", frame->rip);

	mov	rax, QWORD PTR frame$[rsp]
	mov	rdx, QWORD PTR [rax+16]
	lea	rcx, OFFSET FLAT:$SG2810
	call	?printf@@YAXPEBDZZ			; printf

; 49   : 	printf("RSP -> %x\n", frame->rsp);

	mov	rax, QWORD PTR frame$[rsp]
	mov	rdx, QWORD PTR [rax+40]
	lea	rcx, OFFSET FLAT:$SG2811
	call	?printf@@YAXPEBDZZ			; printf

; 50   : 	printf("RFLAGS -> %x\n", frame->rflags);

	mov	rax, QWORD PTR frame$[rsp]
	mov	rdx, QWORD PTR [rax+32]
	lea	rcx, OFFSET FLAT:$SG2812
	call	?printf@@YAXPEBDZZ			; printf
$LN2@divide_by_:

; 51   : 
; 52   : 	for (;;);

	jmp	SHORT $LN2@divide_by_

; 53   : }

	add	rsp, 56					; 00000038H
	ret	0
?divide_by_zero_fault@@YAX_KPEAX@Z ENDP			; divide_by_zero_fault
_TEXT	ENDS
; Function compile flags: /Odtpy
; File e:\aurora kernel\kernel\arch\x86_64\x86_64_exception.cpp
_TEXT	SEGMENT
msg$ = 48
?panic@@YAXPEBDZZ PROC					; panic

; 34   : void panic(const char* msg, ...) {

$LN3:
	mov	QWORD PTR [rsp+8], rcx
	mov	QWORD PTR [rsp+16], rdx
	mov	QWORD PTR [rsp+24], r8
	mov	QWORD PTR [rsp+32], r9
	sub	rsp, 40					; 00000028H

; 35   : 	printf("***ARCH x86_64 : Exception Occured ***\n");

	lea	rcx, OFFSET FLAT:$SG2798
	call	?printf@@YAXPEBDZZ			; printf

; 36   : 	printf("[aurora]: We are sorry to say that, a processor invalid exception has occured\n");

	lea	rcx, OFFSET FLAT:$SG2799
	call	?printf@@YAXPEBDZZ			; printf

; 37   : 	printf("[aurora]: please inform it to the master of the kernel\n");

	lea	rcx, OFFSET FLAT:$SG2800
	call	?printf@@YAXPEBDZZ			; printf

; 38   : 	printf("[aurora]: Below is the code of exception\n");

	lea	rcx, OFFSET FLAT:$SG2801
	call	?printf@@YAXPEBDZZ			; printf

; 39   : 	printf(msg);

	mov	rcx, QWORD PTR msg$[rsp]
	call	?printf@@YAXPEBDZZ			; printf

; 40   : }

	add	rsp, 40					; 00000028H
	ret	0
?panic@@YAXPEBDZZ ENDP					; panic
_TEXT	ENDS
; Function compile flags: /Odtpy
; File e:\aurora kernel\kernel\arch\x86_64\x86_64_exception.cpp
_TEXT	SEGMENT
?x86_64_exception_init@@YAXXZ PROC			; x86_64_exception_init

; 211  : void x86_64_exception_init() {

$LN3:
	sub	rsp, 40					; 00000028H

; 212  : 	setvect(0, divide_by_zero_fault);

	lea	rdx, OFFSET FLAT:?divide_by_zero_fault@@YAX_KPEAX@Z ; divide_by_zero_fault
	xor	ecx, ecx
	call	?setvect@@YAX_KP6AX0PEAX@Z@Z		; setvect

; 213  : 	setvect(1, single_step_trap);

	lea	rdx, OFFSET FLAT:?single_step_trap@@YAX_KPEAX@Z ; single_step_trap
	mov	ecx, 1
	call	?setvect@@YAX_KP6AX0PEAX@Z@Z		; setvect

; 214  : 	setvect(2, nmi_trap);

	lea	rdx, OFFSET FLAT:?nmi_trap@@YAX_KPEAX@Z	; nmi_trap
	mov	ecx, 2
	call	?setvect@@YAX_KP6AX0PEAX@Z@Z		; setvect

; 215  : 	setvect(3, breakpoint_trap);

	lea	rdx, OFFSET FLAT:?breakpoint_trap@@YAX_KPEAX@Z ; breakpoint_trap
	mov	ecx, 3
	call	?setvect@@YAX_KP6AX0PEAX@Z@Z		; setvect

; 216  : 	setvect(4, overflow_trap);

	lea	rdx, OFFSET FLAT:?overflow_trap@@YAX_KPEAX@Z ; overflow_trap
	mov	ecx, 4
	call	?setvect@@YAX_KP6AX0PEAX@Z@Z		; setvect

; 217  : 	setvect(5, bounds_check_fault);

	lea	rdx, OFFSET FLAT:?bounds_check_fault@@YAX_KPEAX@Z ; bounds_check_fault
	mov	ecx, 5
	call	?setvect@@YAX_KP6AX0PEAX@Z@Z		; setvect

; 218  : 	setvect(6, invalid_opcode_fault);

	lea	rdx, OFFSET FLAT:?invalid_opcode_fault@@YAX_KPEAX@Z ; invalid_opcode_fault
	mov	ecx, 6
	call	?setvect@@YAX_KP6AX0PEAX@Z@Z		; setvect

; 219  : 	setvect(7, no_device_fault);

	lea	rdx, OFFSET FLAT:?no_device_fault@@YAX_KPEAX@Z ; no_device_fault
	mov	ecx, 7
	call	?setvect@@YAX_KP6AX0PEAX@Z@Z		; setvect

; 220  : 	setvect(8, double_fault_abort);

	lea	rdx, OFFSET FLAT:?double_fault_abort@@YAX_KPEAX@Z ; double_fault_abort
	mov	ecx, 8
	call	?setvect@@YAX_KP6AX0PEAX@Z@Z		; setvect

; 221  : 	setvect(10, invalid_tss_fault);

	lea	rdx, OFFSET FLAT:?invalid_tss_fault@@YAX_KPEAX@Z ; invalid_tss_fault
	mov	ecx, 10
	call	?setvect@@YAX_KP6AX0PEAX@Z@Z		; setvect

; 222  : 	setvect(11, no_segment_fault);

	lea	rdx, OFFSET FLAT:?no_segment_fault@@YAX_KPEAX@Z ; no_segment_fault
	mov	ecx, 11
	call	?setvect@@YAX_KP6AX0PEAX@Z@Z		; setvect

; 223  : 	setvect(12, stack_fault);

	lea	rdx, OFFSET FLAT:?stack_fault@@YAX_KPEAX@Z ; stack_fault
	mov	ecx, 12
	call	?setvect@@YAX_KP6AX0PEAX@Z@Z		; setvect

; 224  : 	setvect(13, general_protection_fault);

	lea	rdx, OFFSET FLAT:?general_protection_fault@@YAX_KPEAX@Z ; general_protection_fault
	mov	ecx, 13
	call	?setvect@@YAX_KP6AX0PEAX@Z@Z		; setvect

; 225  : 	setvect(14, page_fault);

	lea	rdx, OFFSET FLAT:?page_fault@@YAX_KPEAX@Z ; page_fault
	mov	ecx, 14
	call	?setvect@@YAX_KP6AX0PEAX@Z@Z		; setvect

; 226  : 	setvect(16, fpu_fault);

	lea	rdx, OFFSET FLAT:?fpu_fault@@YAX_KPEAX@Z ; fpu_fault
	mov	ecx, 16
	call	?setvect@@YAX_KP6AX0PEAX@Z@Z		; setvect

; 227  : 	setvect(17, alignment_check_fault);

	lea	rdx, OFFSET FLAT:?alignment_check_fault@@YAX_KPEAX@Z ; alignment_check_fault
	mov	ecx, 17
	call	?setvect@@YAX_KP6AX0PEAX@Z@Z		; setvect

; 228  : 	setvect(18, machine_check_abort);

	lea	rdx, OFFSET FLAT:?machine_check_abort@@YAX_KPEAX@Z ; machine_check_abort
	mov	ecx, 18
	call	?setvect@@YAX_KP6AX0PEAX@Z@Z		; setvect

; 229  : 	setvect(19, simd_fpu_fault);

	lea	rdx, OFFSET FLAT:?simd_fpu_fault@@YAX_KPEAX@Z ; simd_fpu_fault
	mov	ecx, 19
	call	?setvect@@YAX_KP6AX0PEAX@Z@Z		; setvect

; 230  : }

	add	rsp, 40					; 00000028H
	ret	0
?x86_64_exception_init@@YAXXZ ENDP			; x86_64_exception_init
_TEXT	ENDS
END
